	.text
	.file	"susan.c"
	.globl	usage                   # -- Begin function usage
	.p2align	4, 0x90
	.type	usage,@function
usage:                                  # @usage
	.cfi_startproc
# BB#0:
	pushq	%rbp
.Lcfi0:
	.cfi_def_cfa_offset 16
.Lcfi1:
	.cfi_offset %rbp, -16
	movq	%rsp, %rbp
.Lcfi2:
	.cfi_def_cfa_register %rbp
	subq	$16, %rsp
	movl	$65537, %edi            # imm = 0x10001
	callq	enqueue_signature
	movabsq	$.L.str, %rdi
	movb	$0, %al
	callq	printf
# BB#1:
	movl	$65538, %edi            # imm = 0x10002
	callq	enqueue_signature
	movabsq	$.L.str.1, %rdi
	movb	$0, %al
	callq	printf
# BB#2:
	movl	$65539, %edi            # imm = 0x10003
	callq	enqueue_signature
	movabsq	$.L.str.2, %rdi
	movb	$0, %al
	callq	printf
# BB#3:
	movl	$65540, %edi            # imm = 0x10004
	callq	enqueue_signature
	movabsq	$.L.str.3, %rdi
	movb	$0, %al
	callq	printf
# BB#4:
	movl	$65541, %edi            # imm = 0x10005
	callq	enqueue_signature
	movabsq	$.L.str.4, %rdi
	movb	$0, %al
	callq	printf
# BB#5:
	movl	$65542, %edi            # imm = 0x10006
	callq	enqueue_signature
	movabsq	$.L.str.5, %rdi
	movb	$0, %al
	callq	printf
# BB#6:
	movl	$65543, %edi            # imm = 0x10007
	callq	enqueue_signature
	movabsq	$.L.str.6, %rdi
	movb	$0, %al
	callq	printf
# BB#7:
	movl	$65544, %edi            # imm = 0x10008
	callq	enqueue_signature
	movabsq	$.L.str.7, %rdi
	movb	$0, %al
	callq	printf
# BB#8:
	movl	$65545, %edi            # imm = 0x10009
	callq	enqueue_signature
	movabsq	$.L.str.8, %rdi
	movb	$0, %al
	callq	printf
# BB#9:
	movl	$65546, %edi            # imm = 0x1000A
	callq	enqueue_signature
	movabsq	$.L.str.9, %rdi
	movb	$0, %al
	callq	printf
# BB#10:
	movl	$65547, %edi            # imm = 0x1000B
	callq	enqueue_signature
	movabsq	$.L.str.10, %rdi
	movb	$0, %al
	callq	printf
# BB#11:
	movl	$65548, %edi            # imm = 0x1000C
	callq	enqueue_signature
	movabsq	$.L.str.11, %rdi
	movb	$0, %al
	callq	printf
# BB#12:
	movl	$65549, %edi            # imm = 0x1000D
	callq	enqueue_signature
	movabsq	$.L.str.12, %rdi
	movb	$0, %al
	callq	printf
# BB#13:
	movl	$65550, %edi            # imm = 0x1000E
	callq	enqueue_signature_with_return
	movl	-4(%rbp), %eax
	addq	$16, %rsp
	popq	%rbp
	retq
.Lfunc_end0:
	.size	usage, .Lfunc_end0-usage
	.cfi_endproc
                                        # -- End function
	.globl	getint                  # -- Begin function getint
	.p2align	4, 0x90
	.type	getint,@function
getint:                                 # @getint
	.cfi_startproc
# BB#0:
	pushq	%rbp
.Lcfi3:
	.cfi_def_cfa_offset 16
.Lcfi4:
	.cfi_offset %rbp, -16
	movq	%rsp, %rbp
.Lcfi5:
	.cfi_def_cfa_register %rbp
	pushq	%rbx
	subq	$10024, %rsp            # imm = 0x2728
.Lcfi6:
	.cfi_offset %rbx, -24
	movq	%rdi, %rbx
	movl	$196609, %edi           # imm = 0x30001
	callq	enqueue_signature
	movq	%rbx, -32(%rbp)
	movq	-32(%rbp), %rdi
	callq	_IO_getc
	movl	%eax, %ebx
# BB#1:
	movl	$196610, %edi           # imm = 0x30002
	callq	enqueue_signature
	movl	%ebx, -12(%rbp)
.LBB1_2:                                # =>This Inner Loop Header: Depth=1
	movl	$196611, %edi           # imm = 0x30003
	callq	enqueue_signature
	cmpl	$35, -12(%rbp)
	jne	.LBB1_4
# BB#3:                                 #   in Loop: Header=BB1_2 Depth=1
	movl	$196612, %edi           # imm = 0x30004
	callq	enqueue_signature
	leaq	-10032(%rbp), %rdi
	movq	-32(%rbp), %rdx
	movl	$9000, %esi             # imm = 0x2328
	callq	fgets
.LBB1_4:                                #   in Loop: Header=BB1_2 Depth=1
	movl	$196613, %edi           # imm = 0x30005
	callq	enqueue_signature
	cmpl	$-1, -12(%rbp)
	jne	.LBB1_6
# BB#5:                                 #   in Loop: Header=BB1_2 Depth=1
	movl	$196614, %edi           # imm = 0x30006
	callq	enqueue_signature
	movabsq	$.L.str.13, %rsi
	movabsq	$.L.str.14, %rdx
	movq	stderr, %rdi
	movb	$0, %al
	callq	fprintf
.LBB1_6:                                #   in Loop: Header=BB1_2 Depth=1
	movl	$196615, %edi           # imm = 0x30007
	callq	enqueue_signature
	cmpl	$48, -12(%rbp)
	jl	.LBB1_9
# BB#7:                                 #   in Loop: Header=BB1_2 Depth=1
	movl	$196616, %edi           # imm = 0x30008
	callq	enqueue_signature
	cmpl	$57, -12(%rbp)
	jg	.LBB1_9
# BB#8:
	movl	$196617, %edi           # imm = 0x30009
	callq	enqueue_signature
	jmp	.LBB1_11
.LBB1_9:                                #   in Loop: Header=BB1_2 Depth=1
	movl	$196618, %edi           # imm = 0x3000A
	callq	enqueue_signature
	movq	-32(%rbp), %rdi
	callq	_IO_getc
	movl	%eax, %ebx
# BB#10:                                #   in Loop: Header=BB1_2 Depth=1
	movl	$196619, %edi           # imm = 0x3000B
	callq	enqueue_signature
	movl	%ebx, -12(%rbp)
	jmp	.LBB1_2
.LBB1_11:
	movl	$196620, %edi           # imm = 0x3000C
	callq	enqueue_signature
	movl	$0, -16(%rbp)
.LBB1_12:                               # =>This Inner Loop Header: Depth=1
	movl	$196621, %edi           # imm = 0x3000D
	callq	enqueue_signature
	imull	$10, -16(%rbp), %eax
	movl	-12(%rbp), %ecx
	subl	$48, %ecx
	addl	%eax, %ecx
	movl	%ecx, -16(%rbp)
	movq	-32(%rbp), %rdi
	callq	_IO_getc
	movl	%eax, %ebx
# BB#13:                                #   in Loop: Header=BB1_12 Depth=1
	movl	$196622, %edi           # imm = 0x3000E
	callq	enqueue_signature
	movl	%ebx, -12(%rbp)
	cmpl	$-1, -12(%rbp)
	jne	.LBB1_15
# BB#14:
	movl	$196623, %edi           # imm = 0x3000F
	callq	enqueue_signature
	movl	-16(%rbp), %eax
	movl	%eax, -20(%rbp)
	jmp	.LBB1_20
.LBB1_15:                               #   in Loop: Header=BB1_12 Depth=1
	movl	$196624, %edi           # imm = 0x30010
	callq	enqueue_signature
	cmpl	$48, -12(%rbp)
	jl	.LBB1_17
# BB#16:                                #   in Loop: Header=BB1_12 Depth=1
	movl	$196625, %edi           # imm = 0x30011
	callq	enqueue_signature
	cmpl	$57, -12(%rbp)
	jle	.LBB1_18
.LBB1_17:
	movl	$196626, %edi           # imm = 0x30012
	callq	enqueue_signature
	jmp	.LBB1_19
.LBB1_18:                               #   in Loop: Header=BB1_12 Depth=1
	movl	$196627, %edi           # imm = 0x30013
	callq	enqueue_signature
	jmp	.LBB1_12
.LBB1_19:
	movl	$196628, %edi           # imm = 0x30014
	callq	enqueue_signature
	movl	-16(%rbp), %eax
	movl	%eax, -20(%rbp)
.LBB1_20:
	movl	$196629, %edi           # imm = 0x30015
	callq	enqueue_signature_with_return
	movl	-20(%rbp), %eax
	addq	$10024, %rsp            # imm = 0x2728
	popq	%rbx
	popq	%rbp
	retq
.Lfunc_end1:
	.size	getint, .Lfunc_end1-getint
	.cfi_endproc
                                        # -- End function
	.globl	get_image               # -- Begin function get_image
	.p2align	4, 0x90
	.type	get_image,@function
get_image:                              # @get_image
	.cfi_startproc
# BB#0:
	pushq	%rbp
.Lcfi7:
	.cfi_def_cfa_offset 16
.Lcfi8:
	.cfi_offset %rbp, -16
	movq	%rsp, %rbp
.Lcfi9:
	.cfi_def_cfa_register %rbp
	pushq	%r15
	pushq	%r14
	pushq	%r12
	pushq	%rbx
	subq	$144, %rsp
.Lcfi10:
	.cfi_offset %rbx, -48
.Lcfi11:
	.cfi_offset %r12, -40
.Lcfi12:
	.cfi_offset %r14, -32
.Lcfi13:
	.cfi_offset %r15, -24
	movq	%rcx, %r14
	movq	%rdx, %r15
	movq	%rsi, %r12
	movq	%rdi, %rbx
	movl	$458753, %edi           # imm = 0x70001
	callq	enqueue_signature
	movabsq	$.L.str.15, %rsi
	movq	%rbx, -48(%rbp)
	movq	%r12, -72(%rbp)
	movq	%r15, -64(%rbp)
	movq	%r14, -56(%rbp)
	movq	-48(%rbp), %rdi
	callq	fopen
	movq	%rax, %rbx
# BB#1:
	movl	$458754, %edi           # imm = 0x70002
	callq	enqueue_signature
	movq	%rbx, -40(%rbp)
	cmpq	$0, %rbx
	jne	.LBB2_3
# BB#2:
	movl	$458755, %edi           # imm = 0x70003
	callq	enqueue_signature
	movabsq	$.L.str.16, %rsi
	movq	stderr, %rdi
	movq	-48(%rbp), %rdx
	movb	$0, %al
	callq	fprintf
.LBB2_3:
	movl	$458756, %edi           # imm = 0x70004
	callq	enqueue_signature
	movq	-40(%rbp), %rdi
	callq	fgetc
	movl	%eax, %ebx
# BB#4:
	movl	$458757, %edi           # imm = 0x70005
	callq	enqueue_signature
	movb	%bl, -176(%rbp)
	movq	-40(%rbp), %rdi
	callq	fgetc
	movl	%eax, %ebx
# BB#5:
	movl	$458758, %edi           # imm = 0x70006
	callq	enqueue_signature
	movb	%bl, -175(%rbp)
	movsbl	-176(%rbp), %eax
	cmpl	$80, %eax
	jne	.LBB2_7
# BB#6:
	movl	$458759, %edi           # imm = 0x70007
	callq	enqueue_signature
	movsbl	-175(%rbp), %eax
	cmpl	$53, %eax
	je	.LBB2_8
.LBB2_7:
	movl	$458760, %edi           # imm = 0x70008
	callq	enqueue_signature
	movabsq	$.L.str.17, %rsi
	movq	stderr, %rdi
	movq	-48(%rbp), %rdx
	movb	$0, %al
	callq	fprintf
.LBB2_8:
	movl	$458761, %edi           # imm = 0x70009
	callq	enqueue_signature_with_call
	movq	-40(%rbp), %rdi
	callq	getint
	movl	%eax, %ebx
# BB#9:
	movl	$458762, %edi           # imm = 0x7000A
	callq	enqueue_signature_with_call
	movq	-64(%rbp), %rax
	movl	%ebx, (%rax)
	movq	-40(%rbp), %rdi
	callq	getint
	movl	%eax, %ebx
# BB#10:
	movl	$458763, %edi           # imm = 0x7000B
	callq	enqueue_signature_with_call
	movq	-56(%rbp), %rax
	movl	%ebx, (%rax)
	movq	-40(%rbp), %rdi
	callq	getint
	movl	%eax, %ebx
# BB#11:
	movl	$458764, %edi           # imm = 0x7000C
	callq	enqueue_signature
	movl	%ebx, -76(%rbp)
	movq	-64(%rbp), %rax
	movl	(%rax), %eax
	movq	-56(%rbp), %rcx
	imull	(%rcx), %eax
	movslq	%eax, %rdi
	callq	malloc
	movq	%rax, %rbx
# BB#12:
	movl	$458765, %edi           # imm = 0x7000D
	callq	enqueue_signature
	movq	-72(%rbp), %rax
	movq	%rbx, (%rax)
	movq	-72(%rbp), %rax
	movq	(%rax), %rdi
	movq	-64(%rbp), %rax
	movl	(%rax), %eax
	movq	-56(%rbp), %rcx
	imull	(%rcx), %eax
	movslq	%eax, %rdx
	movq	-40(%rbp), %rcx
	movl	$1, %esi
	callq	fread
	movq	%rax, %rbx
# BB#13:
	movl	$458766, %edi           # imm = 0x7000E
	callq	enqueue_signature
	cmpq	$0, %rbx
	jne	.LBB2_15
# BB#14:
	movl	$458767, %edi           # imm = 0x7000F
	callq	enqueue_signature
	movabsq	$.L.str.18, %rsi
	movq	stderr, %rdi
	movq	-48(%rbp), %rdx
	movb	$0, %al
	callq	fprintf
.LBB2_15:
	movl	$458768, %edi           # imm = 0x70010
	callq	enqueue_signature
	movq	-40(%rbp), %rdi
	callq	fclose
# BB#16:
	movl	$458769, %edi           # imm = 0x70011
	callq	enqueue_signature_with_return
	addq	$144, %rsp
	popq	%rbx
	popq	%r12
	popq	%r14
	popq	%r15
	popq	%rbp
	retq
.Lfunc_end2:
	.size	get_image, .Lfunc_end2-get_image
	.cfi_endproc
                                        # -- End function
	.globl	put_image               # -- Begin function put_image
	.p2align	4, 0x90
	.type	put_image,@function
put_image:                              # @put_image
	.cfi_startproc
# BB#0:
	pushq	%rbp
.Lcfi14:
	.cfi_def_cfa_offset 16
.Lcfi15:
	.cfi_offset %rbp, -16
	movq	%rsp, %rbp
.Lcfi16:
	.cfi_def_cfa_register %rbp
	pushq	%r15
	pushq	%r14
	pushq	%r12
	pushq	%rbx
	subq	$48, %rsp
.Lcfi17:
	.cfi_offset %rbx, -48
.Lcfi18:
	.cfi_offset %r12, -40
.Lcfi19:
	.cfi_offset %r14, -32
.Lcfi20:
	.cfi_offset %r15, -24
	movl	%ecx, %r14d
	movl	%edx, %r15d
	movq	%rsi, %r12
	movq	%rdi, %rbx
	movl	$851969, %edi           # imm = 0xD0001
	callq	enqueue_signature
	movabsq	$.L.str.19, %rsi
	movq	%rbx, -56(%rbp)
	movq	%r12, -64(%rbp)
	movl	%r15d, -48(%rbp)
	movl	%r14d, -44(%rbp)
	movq	-56(%rbp), %rdi
	callq	fopen
	movq	%rax, %rbx
# BB#1:
	movl	$851970, %edi           # imm = 0xD0002
	callq	enqueue_signature
	movq	%rbx, -40(%rbp)
	cmpq	$0, %rbx
	jne	.LBB3_3
# BB#2:
	movl	$851971, %edi           # imm = 0xD0003
	callq	enqueue_signature
	movabsq	$.L.str.20, %rsi
	movq	stderr, %rdi
	movq	-56(%rbp), %rdx
	movb	$0, %al
	callq	fprintf
.LBB3_3:
	movl	$851972, %edi           # imm = 0xD0004
	callq	enqueue_signature
	movabsq	$.L.str.21, %rsi
	movq	-40(%rbp), %rdi
	movb	$0, %al
	callq	fprintf
# BB#4:
	movl	$851973, %edi           # imm = 0xD0005
	callq	enqueue_signature
	movabsq	$.L.str.22, %rsi
	movq	-40(%rbp), %rdi
	movl	-48(%rbp), %edx
	movl	-44(%rbp), %ecx
	movb	$0, %al
	callq	fprintf
# BB#5:
	movl	$851974, %edi           # imm = 0xD0006
	callq	enqueue_signature
	movabsq	$.L.str.23, %rsi
	movq	-40(%rbp), %rdi
	movb	$0, %al
	callq	fprintf
# BB#6:
	movl	$851975, %edi           # imm = 0xD0007
	callq	enqueue_signature
	movq	-64(%rbp), %rdi
	movl	-48(%rbp), %eax
	imull	-44(%rbp), %eax
	movslq	%eax, %rsi
	movq	-40(%rbp), %rcx
	movl	$1, %edx
	callq	fwrite
	movq	%rax, %rbx
# BB#7:
	movl	$851976, %edi           # imm = 0xD0008
	callq	enqueue_signature
	cmpq	$1, %rbx
	je	.LBB3_9
# BB#8:
	movl	$851977, %edi           # imm = 0xD0009
	callq	enqueue_signature
	movabsq	$.L.str.24, %rsi
	movq	stderr, %rdi
	movq	-56(%rbp), %rdx
	movb	$0, %al
	callq	fprintf
.LBB3_9:
	movl	$851978, %edi           # imm = 0xD000A
	callq	enqueue_signature
	movq	-40(%rbp), %rdi
	callq	fclose
# BB#10:
	movl	$851979, %edi           # imm = 0xD000B
	callq	enqueue_signature_with_return
	movl	-68(%rbp), %eax
	addq	$48, %rsp
	popq	%rbx
	popq	%r12
	popq	%r14
	popq	%r15
	popq	%rbp
	retq
.Lfunc_end3:
	.size	put_image, .Lfunc_end3-put_image
	.cfi_endproc
                                        # -- End function
	.globl	int_to_uchar            # -- Begin function int_to_uchar
	.p2align	4, 0x90
	.type	int_to_uchar,@function
int_to_uchar:                           # @int_to_uchar
	.cfi_startproc
# BB#0:
	pushq	%rbp
.Lcfi21:
	.cfi_def_cfa_offset 16
.Lcfi22:
	.cfi_offset %rbp, -16
	movq	%rsp, %rbp
.Lcfi23:
	.cfi_def_cfa_register %rbp
	pushq	%r15
	pushq	%r14
	pushq	%rbx
	subq	$56, %rsp
.Lcfi24:
	.cfi_offset %rbx, -40
.Lcfi25:
	.cfi_offset %r14, -32
.Lcfi26:
	.cfi_offset %r15, -24
	movl	%edx, %r14d
	movq	%rsi, %r15
	movq	%rdi, %rbx
	movl	$983041, %edi           # imm = 0xF0001
	callq	enqueue_signature
	movq	%rbx, -48(%rbp)
	movq	%r15, -64(%rbp)
	movl	%r14d, -52(%rbp)
	movq	-48(%rbp), %rax
	movl	(%rax), %eax
	movl	%eax, -32(%rbp)
	movq	-48(%rbp), %rax
	movl	(%rax), %eax
	movl	%eax, -36(%rbp)
	movl	$0, -28(%rbp)
.LBB4_1:                                # =>This Inner Loop Header: Depth=1
	movl	$983042, %edi           # imm = 0xF0002
	callq	enqueue_signature
	movl	-28(%rbp), %eax
	cmpl	-52(%rbp), %eax
	jge	.LBB4_8
# BB#2:                                 #   in Loop: Header=BB4_1 Depth=1
	movl	$983043, %edi           # imm = 0xF0003
	callq	enqueue_signature
	movq	-48(%rbp), %rax
	movslq	-28(%rbp), %rcx
	movl	(%rax,%rcx,4), %eax
	cmpl	-32(%rbp), %eax
	jle	.LBB4_4
# BB#3:                                 #   in Loop: Header=BB4_1 Depth=1
	movl	$983044, %edi           # imm = 0xF0004
	callq	enqueue_signature
	movq	-48(%rbp), %rax
	movslq	-28(%rbp), %rcx
	movl	(%rax,%rcx,4), %eax
	movl	%eax, -32(%rbp)
.LBB4_4:                                #   in Loop: Header=BB4_1 Depth=1
	movl	$983045, %edi           # imm = 0xF0005
	callq	enqueue_signature
	movq	-48(%rbp), %rax
	movslq	-28(%rbp), %rcx
	movl	(%rax,%rcx,4), %eax
	cmpl	-36(%rbp), %eax
	jge	.LBB4_6
# BB#5:                                 #   in Loop: Header=BB4_1 Depth=1
	movl	$983046, %edi           # imm = 0xF0006
	callq	enqueue_signature
	movq	-48(%rbp), %rax
	movslq	-28(%rbp), %rcx
	movl	(%rax,%rcx,4), %eax
	movl	%eax, -36(%rbp)
.LBB4_6:                                #   in Loop: Header=BB4_1 Depth=1
	movl	$983047, %edi           # imm = 0xF0007
	callq	enqueue_signature
# BB#7:                                 #   in Loop: Header=BB4_1 Depth=1
	movl	$983048, %edi           # imm = 0xF0008
	callq	enqueue_signature
	movl	-28(%rbp), %eax
	addl	$1, %eax
	movl	%eax, -28(%rbp)
	jmp	.LBB4_1
.LBB4_8:
	movl	$983049, %edi           # imm = 0xF0009
	callq	enqueue_signature
	movl	-36(%rbp), %eax
	movl	-32(%rbp), %ecx
	subl	%eax, %ecx
	movl	%ecx, -32(%rbp)
	movl	$0, -28(%rbp)
.LBB4_9:                                # =>This Inner Loop Header: Depth=1
	movl	$983050, %edi           # imm = 0xF000A
	callq	enqueue_signature
	movl	-28(%rbp), %eax
	cmpl	-52(%rbp), %eax
	jge	.LBB4_12
# BB#10:                                #   in Loop: Header=BB4_9 Depth=1
	movl	$983051, %edi           # imm = 0xF000B
	callq	enqueue_signature
	movq	-48(%rbp), %rax
	movslq	-28(%rbp), %rcx
	movl	(%rax,%rcx,4), %eax
	subl	-36(%rbp), %eax
	imull	$255, %eax, %eax
	cltd
	idivl	-32(%rbp)
	movq	-64(%rbp), %rcx
	movslq	-28(%rbp), %rdx
	movb	%al, (%rcx,%rdx)
# BB#11:                                #   in Loop: Header=BB4_9 Depth=1
	movl	$983052, %edi           # imm = 0xF000C
	callq	enqueue_signature
	movl	-28(%rbp), %eax
	addl	$1, %eax
	movl	%eax, -28(%rbp)
	jmp	.LBB4_9
.LBB4_12:
	movl	$983053, %edi           # imm = 0xF000D
	callq	enqueue_signature_with_return
	movl	-68(%rbp), %eax
	addq	$56, %rsp
	popq	%rbx
	popq	%r14
	popq	%r15
	popq	%rbp
	retq
.Lfunc_end4:
	.size	int_to_uchar, .Lfunc_end4-int_to_uchar
	.cfi_endproc
                                        # -- End function
	.section	.rodata.cst8,"aM",@progbits,8
	.p2align	3               # -- Begin function setup_brightness_lut
.LCPI5_0:
	.quad	4636737291354636288     # double 100
	.text
	.globl	setup_brightness_lut
	.p2align	4, 0x90
	.type	setup_brightness_lut,@function
setup_brightness_lut:                   # @setup_brightness_lut
	.cfi_startproc
# BB#0:
	pushq	%rbp
.Lcfi27:
	.cfi_def_cfa_offset 16
.Lcfi28:
	.cfi_offset %rbp, -16
	movq	%rsp, %rbp
.Lcfi29:
	.cfi_def_cfa_register %rbp
	pushq	%r15
	pushq	%r14
	pushq	%rbx
	subq	$40, %rsp
.Lcfi30:
	.cfi_offset %rbx, -40
.Lcfi31:
	.cfi_offset %r14, -32
.Lcfi32:
	.cfi_offset %r15, -24
	movl	%edx, %r14d
	movl	%esi, %r15d
	movq	%rdi, %rbx
	movl	$1048577, %edi          # imm = 0x100001
	callq	enqueue_signature
	movq	%rbx, -40(%rbp)
	movl	%r15d, -48(%rbp)
	movl	%r14d, -44(%rbp)
	movl	$516, %edi              # imm = 0x204
	callq	malloc
	movq	%rax, %rbx
# BB#1:
	movl	$1048578, %edi          # imm = 0x100002
	callq	enqueue_signature
	movq	-40(%rbp), %rax
	movq	%rbx, (%rax)
	movq	-40(%rbp), %rax
	movq	(%rax), %rax
	addq	$258, %rax              # imm = 0x102
	movq	-40(%rbp), %rcx
	movq	%rax, (%rcx)
	movl	$-256, -32(%rbp)
.LBB5_2:                                # =>This Inner Loop Header: Depth=1
	movl	$1048579, %edi          # imm = 0x100003
	callq	enqueue_signature
	cmpl	$257, -32(%rbp)         # imm = 0x101
	jge	.LBB5_8
# BB#3:                                 #   in Loop: Header=BB5_2 Depth=1
	movl	$1048580, %edi          # imm = 0x100004
	callq	enqueue_signature
	cvtsi2ssl	-32(%rbp), %xmm0
	cvtsi2ssl	-48(%rbp), %xmm1
	divss	%xmm1, %xmm0
	movss	%xmm0, -28(%rbp)
	movss	-28(%rbp), %xmm0        # xmm0 = mem[0],zero,zero,zero
	mulss	-28(%rbp), %xmm0
	movss	%xmm0, -28(%rbp)
	cmpl	$6, -44(%rbp)
	jne	.LBB5_5
# BB#4:                                 #   in Loop: Header=BB5_2 Depth=1
	movl	$1048581, %edi          # imm = 0x100005
	callq	enqueue_signature
	movss	-28(%rbp), %xmm0        # xmm0 = mem[0],zero,zero,zero
	mulss	-28(%rbp), %xmm0
	mulss	-28(%rbp), %xmm0
	movss	%xmm0, -28(%rbp)
.LBB5_5:                                #   in Loop: Header=BB5_2 Depth=1
	movl	$1048582, %edi          # imm = 0x100006
	callq	enqueue_signature
	movss	-28(%rbp), %xmm0        # xmm0 = mem[0],zero,zero,zero
	movd	%xmm0, %eax
	xorl	$2147483648, %eax       # imm = 0x80000000
	movd	%eax, %xmm0
	cvtss2sd	%xmm0, %xmm0
	callq	exp
	movsd	%xmm0, -56(%rbp)        # 8-byte Spill
# BB#6:                                 #   in Loop: Header=BB5_2 Depth=1
	movl	$1048583, %edi          # imm = 0x100007
	callq	enqueue_signature
	movsd	.LCPI5_0(%rip), %xmm0   # xmm0 = mem[0],zero
	movsd	-56(%rbp), %xmm1        # 8-byte Reload
                                        # xmm1 = mem[0],zero
	mulsd	%xmm0, %xmm1
	cvtsd2ss	%xmm1, %xmm0
	movss	%xmm0, -28(%rbp)
	cvttss2si	-28(%rbp), %eax
	movq	-40(%rbp), %rcx
	movq	(%rcx), %rcx
	movslq	-32(%rbp), %rdx
	movb	%al, (%rcx,%rdx)
# BB#7:                                 #   in Loop: Header=BB5_2 Depth=1
	movl	$1048584, %edi          # imm = 0x100008
	callq	enqueue_signature
	movl	-32(%rbp), %eax
	addl	$1, %eax
	movl	%eax, -32(%rbp)
	jmp	.LBB5_2
.LBB5_8:
	movl	$1048585, %edi          # imm = 0x100009
	callq	enqueue_signature_with_return
	addq	$40, %rsp
	popq	%rbx
	popq	%r14
	popq	%r15
	popq	%rbp
	retq
.Lfunc_end5:
	.size	setup_brightness_lut, .Lfunc_end5-setup_brightness_lut
	.cfi_endproc
                                        # -- End function
	.globl	susan_principle         # -- Begin function susan_principle
	.p2align	4, 0x90
	.type	susan_principle,@function
susan_principle:                        # @susan_principle
	.cfi_startproc
# BB#0:
	pushq	%rbp
.Lcfi33:
	.cfi_def_cfa_offset 16
.Lcfi34:
	.cfi_offset %rbp, -16
	movq	%rsp, %rbp
.Lcfi35:
	.cfi_def_cfa_register %rbp
	pushq	%r15
	pushq	%r14
	pushq	%r13
	pushq	%r12
	pushq	%rbx
	subq	$88, %rsp
.Lcfi36:
	.cfi_offset %rbx, -56
.Lcfi37:
	.cfi_offset %r12, -48
.Lcfi38:
	.cfi_offset %r13, -40
.Lcfi39:
	.cfi_offset %r14, -32
.Lcfi40:
	.cfi_offset %r15, -24
	movl	%r9d, -88(%rbp)         # 4-byte Spill
	movl	%r8d, %r15d
	movl	%ecx, %r12d
	movq	%rdx, %r13
	movq	%rsi, %rbx
	movq	%rdi, %r14
	movl	$1179649, %edi          # imm = 0x120001
	callq	enqueue_signature
	movq	%r14, -104(%rbp)
	movq	%rbx, -96(%rbp)
	movq	%r13, -112(%rbp)
	movl	%r12d, -84(%rbp)
	movl	%r15d, -68(%rbp)
	movl	-88(%rbp), %eax         # 4-byte Reload
	movl	%eax, -80(%rbp)
	movq	-96(%rbp), %rdi
	movl	-68(%rbp), %eax
	imull	-80(%rbp), %eax
	movslq	%eax, %rdx
	shlq	$2, %rdx
	xorl	%esi, %esi
	callq	memset
# BB#1:
	movl	$1179650, %edi          # imm = 0x120002
	callq	enqueue_signature
	movl	$3, -76(%rbp)
.LBB6_2:                                # =>This Loop Header: Depth=1
                                        #     Child Loop BB6_4 Depth 2
	movl	$1179651, %edi          # imm = 0x120003
	callq	enqueue_signature
	movl	-76(%rbp), %eax
	movl	-80(%rbp), %ecx
	subl	$3, %ecx
	cmpl	%ecx, %eax
	jge	.LBB6_11
# BB#3:                                 #   in Loop: Header=BB6_2 Depth=1
	movl	$1179652, %edi          # imm = 0x120004
	callq	enqueue_signature
	movl	$3, -72(%rbp)
.LBB6_4:                                #   Parent Loop BB6_2 Depth=1
                                        # =>  This Inner Loop Header: Depth=2
	movl	$1179653, %edi          # imm = 0x120005
	callq	enqueue_signature
	movl	-72(%rbp), %eax
	movl	-68(%rbp), %ecx
	subl	$3, %ecx
	cmpl	%ecx, %eax
	jge	.LBB6_9
# BB#5:                                 #   in Loop: Header=BB6_4 Depth=2
	movl	$1179654, %edi          # imm = 0x120006
	callq	enqueue_signature
	xorl	%eax, %eax
	movl	$100, -44(%rbp)
	movq	-104(%rbp), %rcx
	movl	-76(%rbp), %edx
	subl	$3, %edx
	imull	-68(%rbp), %edx
	movslq	%edx, %rdx
	addq	%rcx, %rdx
	movslq	-72(%rbp), %rcx
	addq	%rdx, %rcx
	addq	$-1, %rcx
	movq	%rcx, -56(%rbp)
	movq	-112(%rbp), %rcx
	movq	-104(%rbp), %rdx
	movl	-76(%rbp), %esi
	imull	-68(%rbp), %esi
	addl	-72(%rbp), %esi
	movslq	%esi, %rsi
	movzbl	(%rdx,%rsi), %edx
	movslq	%edx, %rdx
	addq	%rcx, %rdx
	movq	%rdx, -64(%rbp)
	movq	-64(%rbp), %rcx
	movq	-56(%rbp), %rdx
	leaq	1(%rdx), %rsi
	movq	%rsi, -56(%rbp)
	movzbl	(%rdx), %edx
	movslq	%edx, %rdx
	xorl	%esi, %esi
	subq	%rdx, %rsi
	movzbl	(%rcx,%rsi), %ecx
	addl	-44(%rbp), %ecx
	movl	%ecx, -44(%rbp)
	movq	-64(%rbp), %rcx
	movq	-56(%rbp), %rdx
	leaq	1(%rdx), %rsi
	movq	%rsi, -56(%rbp)
	movzbl	(%rdx), %edx
	movslq	%edx, %rdx
	xorl	%esi, %esi
	subq	%rdx, %rsi
	movzbl	(%rcx,%rsi), %ecx
	addl	-44(%rbp), %ecx
	movl	%ecx, -44(%rbp)
	movq	-64(%rbp), %rcx
	movq	-56(%rbp), %rdx
	movzbl	(%rdx), %edx
	movslq	%edx, %rdx
	xorl	%esi, %esi
	subq	%rdx, %rsi
	movzbl	(%rcx,%rsi), %ecx
	addl	-44(%rbp), %ecx
	movl	%ecx, -44(%rbp)
	movl	-68(%rbp), %ecx
	subl	$3, %ecx
	movq	-56(%rbp), %rdx
	movslq	%ecx, %rcx
	addq	%rdx, %rcx
	movq	%rcx, -56(%rbp)
	movq	-64(%rbp), %rcx
	movq	-56(%rbp), %rdx
	leaq	1(%rdx), %rsi
	movq	%rsi, -56(%rbp)
	movzbl	(%rdx), %edx
	movslq	%edx, %rdx
	xorl	%esi, %esi
	subq	%rdx, %rsi
	movzbl	(%rcx,%rsi), %ecx
	addl	-44(%rbp), %ecx
	movl	%ecx, -44(%rbp)
	movq	-64(%rbp), %rcx
	movq	-56(%rbp), %rdx
	leaq	1(%rdx), %rsi
	movq	%rsi, -56(%rbp)
	movzbl	(%rdx), %edx
	movslq	%edx, %rdx
	xorl	%esi, %esi
	subq	%rdx, %rsi
	movzbl	(%rcx,%rsi), %ecx
	addl	-44(%rbp), %ecx
	movl	%ecx, -44(%rbp)
	movq	-64(%rbp), %rcx
	movq	-56(%rbp), %rdx
	leaq	1(%rdx), %rsi
	movq	%rsi, -56(%rbp)
	movzbl	(%rdx), %edx
	movslq	%edx, %rdx
	xorl	%esi, %esi
	subq	%rdx, %rsi
	movzbl	(%rcx,%rsi), %ecx
	addl	-44(%rbp), %ecx
	movl	%ecx, -44(%rbp)
	movq	-64(%rbp), %rcx
	movq	-56(%rbp), %rdx
	leaq	1(%rdx), %rsi
	movq	%rsi, -56(%rbp)
	movzbl	(%rdx), %edx
	movslq	%edx, %rdx
	xorl	%esi, %esi
	subq	%rdx, %rsi
	movzbl	(%rcx,%rsi), %ecx
	addl	-44(%rbp), %ecx
	movl	%ecx, -44(%rbp)
	movq	-64(%rbp), %rcx
	movq	-56(%rbp), %rdx
	movzbl	(%rdx), %edx
	movslq	%edx, %rdx
	xorl	%esi, %esi
	subq	%rdx, %rsi
	movzbl	(%rcx,%rsi), %ecx
	addl	-44(%rbp), %ecx
	movl	%ecx, -44(%rbp)
	movl	-68(%rbp), %ecx
	subl	$5, %ecx
	movq	-56(%rbp), %rdx
	movslq	%ecx, %rcx
	addq	%rdx, %rcx
	movq	%rcx, -56(%rbp)
	movq	-64(%rbp), %rcx
	movq	-56(%rbp), %rdx
	leaq	1(%rdx), %rsi
	movq	%rsi, -56(%rbp)
	movzbl	(%rdx), %edx
	movslq	%edx, %rdx
	xorl	%esi, %esi
	subq	%rdx, %rsi
	movzbl	(%rcx,%rsi), %ecx
	addl	-44(%rbp), %ecx
	movl	%ecx, -44(%rbp)
	movq	-64(%rbp), %rcx
	movq	-56(%rbp), %rdx
	leaq	1(%rdx), %rsi
	movq	%rsi, -56(%rbp)
	movzbl	(%rdx), %edx
	movslq	%edx, %rdx
	xorl	%esi, %esi
	subq	%rdx, %rsi
	movzbl	(%rcx,%rsi), %ecx
	addl	-44(%rbp), %ecx
	movl	%ecx, -44(%rbp)
	movq	-64(%rbp), %rcx
	movq	-56(%rbp), %rdx
	leaq	1(%rdx), %rsi
	movq	%rsi, -56(%rbp)
	movzbl	(%rdx), %edx
	movslq	%edx, %rdx
	xorl	%esi, %esi
	subq	%rdx, %rsi
	movzbl	(%rcx,%rsi), %ecx
	addl	-44(%rbp), %ecx
	movl	%ecx, -44(%rbp)
	movq	-64(%rbp), %rcx
	movq	-56(%rbp), %rdx
	leaq	1(%rdx), %rsi
	movq	%rsi, -56(%rbp)
	movzbl	(%rdx), %edx
	movslq	%edx, %rdx
	xorl	%esi, %esi
	subq	%rdx, %rsi
	movzbl	(%rcx,%rsi), %ecx
	addl	-44(%rbp), %ecx
	movl	%ecx, -44(%rbp)
	movq	-64(%rbp), %rcx
	movq	-56(%rbp), %rdx
	leaq	1(%rdx), %rsi
	movq	%rsi, -56(%rbp)
	movzbl	(%rdx), %edx
	movslq	%edx, %rdx
	xorl	%esi, %esi
	subq	%rdx, %rsi
	movzbl	(%rcx,%rsi), %ecx
	addl	-44(%rbp), %ecx
	movl	%ecx, -44(%rbp)
	movq	-64(%rbp), %rcx
	movq	-56(%rbp), %rdx
	leaq	1(%rdx), %rsi
	movq	%rsi, -56(%rbp)
	movzbl	(%rdx), %edx
	movslq	%edx, %rdx
	xorl	%esi, %esi
	subq	%rdx, %rsi
	movzbl	(%rcx,%rsi), %ecx
	addl	-44(%rbp), %ecx
	movl	%ecx, -44(%rbp)
	movq	-64(%rbp), %rcx
	movq	-56(%rbp), %rdx
	movzbl	(%rdx), %edx
	movslq	%edx, %rdx
	xorl	%esi, %esi
	subq	%rdx, %rsi
	movzbl	(%rcx,%rsi), %ecx
	addl	-44(%rbp), %ecx
	movl	%ecx, -44(%rbp)
	movl	-68(%rbp), %ecx
	subl	$6, %ecx
	movq	-56(%rbp), %rdx
	movslq	%ecx, %rcx
	addq	%rdx, %rcx
	movq	%rcx, -56(%rbp)
	movq	-64(%rbp), %rcx
	movq	-56(%rbp), %rdx
	leaq	1(%rdx), %rsi
	movq	%rsi, -56(%rbp)
	movzbl	(%rdx), %edx
	movslq	%edx, %rdx
	xorl	%esi, %esi
	subq	%rdx, %rsi
	movzbl	(%rcx,%rsi), %ecx
	addl	-44(%rbp), %ecx
	movl	%ecx, -44(%rbp)
	movq	-64(%rbp), %rcx
	movq	-56(%rbp), %rdx
	leaq	1(%rdx), %rsi
	movq	%rsi, -56(%rbp)
	movzbl	(%rdx), %edx
	movslq	%edx, %rdx
	xorl	%esi, %esi
	subq	%rdx, %rsi
	movzbl	(%rcx,%rsi), %ecx
	addl	-44(%rbp), %ecx
	movl	%ecx, -44(%rbp)
	movq	-64(%rbp), %rcx
	movq	-56(%rbp), %rdx
	movzbl	(%rdx), %edx
	movslq	%edx, %rdx
	xorl	%esi, %esi
	subq	%rdx, %rsi
	movzbl	(%rcx,%rsi), %ecx
	addl	-44(%rbp), %ecx
	movl	%ecx, -44(%rbp)
	movq	-56(%rbp), %rcx
	addq	$2, %rcx
	movq	%rcx, -56(%rbp)
	movq	-64(%rbp), %rcx
	movq	-56(%rbp), %rdx
	leaq	1(%rdx), %rsi
	movq	%rsi, -56(%rbp)
	movzbl	(%rdx), %edx
	movslq	%edx, %rdx
	xorl	%esi, %esi
	subq	%rdx, %rsi
	movzbl	(%rcx,%rsi), %ecx
	addl	-44(%rbp), %ecx
	movl	%ecx, -44(%rbp)
	movq	-64(%rbp), %rcx
	movq	-56(%rbp), %rdx
	leaq	1(%rdx), %rsi
	movq	%rsi, -56(%rbp)
	movzbl	(%rdx), %edx
	movslq	%edx, %rdx
	xorl	%esi, %esi
	subq	%rdx, %rsi
	movzbl	(%rcx,%rsi), %ecx
	addl	-44(%rbp), %ecx
	movl	%ecx, -44(%rbp)
	movq	-64(%rbp), %rcx
	movq	-56(%rbp), %rdx
	movzbl	(%rdx), %edx
	movslq	%edx, %rdx
	xorl	%esi, %esi
	subq	%rdx, %rsi
	movzbl	(%rcx,%rsi), %ecx
	addl	-44(%rbp), %ecx
	movl	%ecx, -44(%rbp)
	movl	-68(%rbp), %ecx
	subl	$6, %ecx
	movq	-56(%rbp), %rdx
	movslq	%ecx, %rcx
	addq	%rdx, %rcx
	movq	%rcx, -56(%rbp)
	movq	-64(%rbp), %rcx
	movq	-56(%rbp), %rdx
	leaq	1(%rdx), %rsi
	movq	%rsi, -56(%rbp)
	movzbl	(%rdx), %edx
	movslq	%edx, %rdx
	xorl	%esi, %esi
	subq	%rdx, %rsi
	movzbl	(%rcx,%rsi), %ecx
	addl	-44(%rbp), %ecx
	movl	%ecx, -44(%rbp)
	movq	-64(%rbp), %rcx
	movq	-56(%rbp), %rdx
	leaq	1(%rdx), %rsi
	movq	%rsi, -56(%rbp)
	movzbl	(%rdx), %edx
	movslq	%edx, %rdx
	xorl	%esi, %esi
	subq	%rdx, %rsi
	movzbl	(%rcx,%rsi), %ecx
	addl	-44(%rbp), %ecx
	movl	%ecx, -44(%rbp)
	movq	-64(%rbp), %rcx
	movq	-56(%rbp), %rdx
	leaq	1(%rdx), %rsi
	movq	%rsi, -56(%rbp)
	movzbl	(%rdx), %edx
	movslq	%edx, %rdx
	xorl	%esi, %esi
	subq	%rdx, %rsi
	movzbl	(%rcx,%rsi), %ecx
	addl	-44(%rbp), %ecx
	movl	%ecx, -44(%rbp)
	movq	-64(%rbp), %rcx
	movq	-56(%rbp), %rdx
	leaq	1(%rdx), %rsi
	movq	%rsi, -56(%rbp)
	movzbl	(%rdx), %edx
	movslq	%edx, %rdx
	xorl	%esi, %esi
	subq	%rdx, %rsi
	movzbl	(%rcx,%rsi), %ecx
	addl	-44(%rbp), %ecx
	movl	%ecx, -44(%rbp)
	movq	-64(%rbp), %rcx
	movq	-56(%rbp), %rdx
	leaq	1(%rdx), %rsi
	movq	%rsi, -56(%rbp)
	movzbl	(%rdx), %edx
	movslq	%edx, %rdx
	xorl	%esi, %esi
	subq	%rdx, %rsi
	movzbl	(%rcx,%rsi), %ecx
	addl	-44(%rbp), %ecx
	movl	%ecx, -44(%rbp)
	movq	-64(%rbp), %rcx
	movq	-56(%rbp), %rdx
	leaq	1(%rdx), %rsi
	movq	%rsi, -56(%rbp)
	movzbl	(%rdx), %edx
	movslq	%edx, %rdx
	xorl	%esi, %esi
	subq	%rdx, %rsi
	movzbl	(%rcx,%rsi), %ecx
	addl	-44(%rbp), %ecx
	movl	%ecx, -44(%rbp)
	movq	-64(%rbp), %rcx
	movq	-56(%rbp), %rdx
	movzbl	(%rdx), %edx
	movslq	%edx, %rdx
	xorl	%esi, %esi
	subq	%rdx, %rsi
	movzbl	(%rcx,%rsi), %ecx
	addl	-44(%rbp), %ecx
	movl	%ecx, -44(%rbp)
	movl	-68(%rbp), %ecx
	subl	$5, %ecx
	movq	-56(%rbp), %rdx
	movslq	%ecx, %rcx
	addq	%rdx, %rcx
	movq	%rcx, -56(%rbp)
	movq	-64(%rbp), %rcx
	movq	-56(%rbp), %rdx
	leaq	1(%rdx), %rsi
	movq	%rsi, -56(%rbp)
	movzbl	(%rdx), %edx
	movslq	%edx, %rdx
	xorl	%esi, %esi
	subq	%rdx, %rsi
	movzbl	(%rcx,%rsi), %ecx
	addl	-44(%rbp), %ecx
	movl	%ecx, -44(%rbp)
	movq	-64(%rbp), %rcx
	movq	-56(%rbp), %rdx
	leaq	1(%rdx), %rsi
	movq	%rsi, -56(%rbp)
	movzbl	(%rdx), %edx
	movslq	%edx, %rdx
	xorl	%esi, %esi
	subq	%rdx, %rsi
	movzbl	(%rcx,%rsi), %ecx
	addl	-44(%rbp), %ecx
	movl	%ecx, -44(%rbp)
	movq	-64(%rbp), %rcx
	movq	-56(%rbp), %rdx
	leaq	1(%rdx), %rsi
	movq	%rsi, -56(%rbp)
	movzbl	(%rdx), %edx
	movslq	%edx, %rdx
	xorl	%esi, %esi
	subq	%rdx, %rsi
	movzbl	(%rcx,%rsi), %ecx
	addl	-44(%rbp), %ecx
	movl	%ecx, -44(%rbp)
	movq	-64(%rbp), %rcx
	movq	-56(%rbp), %rdx
	leaq	1(%rdx), %rsi
	movq	%rsi, -56(%rbp)
	movzbl	(%rdx), %edx
	movslq	%edx, %rdx
	xorl	%esi, %esi
	subq	%rdx, %rsi
	movzbl	(%rcx,%rsi), %ecx
	addl	-44(%rbp), %ecx
	movl	%ecx, -44(%rbp)
	movq	-64(%rbp), %rcx
	movq	-56(%rbp), %rdx
	movzbl	(%rdx), %edx
	movslq	%edx, %rdx
	xorl	%esi, %esi
	subq	%rdx, %rsi
	movzbl	(%rcx,%rsi), %ecx
	addl	-44(%rbp), %ecx
	movl	%ecx, -44(%rbp)
	movl	-68(%rbp), %ecx
	subl	$3, %ecx
	movq	-56(%rbp), %rdx
	movslq	%ecx, %rcx
	addq	%rdx, %rcx
	movq	%rcx, -56(%rbp)
	movq	-64(%rbp), %rcx
	movq	-56(%rbp), %rdx
	leaq	1(%rdx), %rsi
	movq	%rsi, -56(%rbp)
	movzbl	(%rdx), %edx
	movslq	%edx, %rdx
	xorl	%esi, %esi
	subq	%rdx, %rsi
	movzbl	(%rcx,%rsi), %ecx
	addl	-44(%rbp), %ecx
	movl	%ecx, -44(%rbp)
	movq	-64(%rbp), %rcx
	movq	-56(%rbp), %rdx
	leaq	1(%rdx), %rsi
	movq	%rsi, -56(%rbp)
	movzbl	(%rdx), %edx
	movslq	%edx, %rdx
	xorl	%esi, %esi
	subq	%rdx, %rsi
	movzbl	(%rcx,%rsi), %ecx
	addl	-44(%rbp), %ecx
	movl	%ecx, -44(%rbp)
	movq	-64(%rbp), %rcx
	movq	-56(%rbp), %rdx
	movzbl	(%rdx), %edx
	movslq	%edx, %rdx
	subq	%rdx, %rax
	movzbl	(%rcx,%rax), %eax
	addl	-44(%rbp), %eax
	movl	%eax, -44(%rbp)
	movl	-44(%rbp), %eax
	cmpl	-84(%rbp), %eax
	jg	.LBB6_7
# BB#6:                                 #   in Loop: Header=BB6_4 Depth=2
	movl	$1179655, %edi          # imm = 0x120007
	callq	enqueue_signature
	movl	-84(%rbp), %eax
	subl	-44(%rbp), %eax
	movq	-96(%rbp), %rcx
	movl	-76(%rbp), %edx
	imull	-68(%rbp), %edx
	addl	-72(%rbp), %edx
	movslq	%edx, %rdx
	movl	%eax, (%rcx,%rdx,4)
.LBB6_7:                                #   in Loop: Header=BB6_4 Depth=2
	movl	$1179656, %edi          # imm = 0x120008
	callq	enqueue_signature
# BB#8:                                 #   in Loop: Header=BB6_4 Depth=2
	movl	$1179657, %edi          # imm = 0x120009
	callq	enqueue_signature
	movl	-72(%rbp), %eax
	addl	$1, %eax
	movl	%eax, -72(%rbp)
	jmp	.LBB6_4
.LBB6_9:                                #   in Loop: Header=BB6_2 Depth=1
	movl	$1179658, %edi          # imm = 0x12000A
	callq	enqueue_signature
# BB#10:                                #   in Loop: Header=BB6_2 Depth=1
	movl	$1179659, %edi          # imm = 0x12000B
	callq	enqueue_signature
	movl	-76(%rbp), %eax
	addl	$1, %eax
	movl	%eax, -76(%rbp)
	jmp	.LBB6_2
.LBB6_11:
	movl	$1179660, %edi          # imm = 0x12000C
	callq	enqueue_signature_with_return
	movl	-116(%rbp), %eax
	addq	$88, %rsp
	popq	%rbx
	popq	%r12
	popq	%r13
	popq	%r14
	popq	%r15
	popq	%rbp
	retq
.Lfunc_end6:
	.size	susan_principle, .Lfunc_end6-susan_principle
	.cfi_endproc
                                        # -- End function
	.globl	susan_principle_small   # -- Begin function susan_principle_small
	.p2align	4, 0x90
	.type	susan_principle_small,@function
susan_principle_small:                  # @susan_principle_small
	.cfi_startproc
# BB#0:
	pushq	%rbp
.Lcfi41:
	.cfi_def_cfa_offset 16
.Lcfi42:
	.cfi_offset %rbp, -16
	movq	%rsp, %rbp
.Lcfi43:
	.cfi_def_cfa_register %rbp
	pushq	%r15
	pushq	%r14
	pushq	%r13
	pushq	%r12
	pushq	%rbx
	subq	$88, %rsp
.Lcfi44:
	.cfi_offset %rbx, -56
.Lcfi45:
	.cfi_offset %r12, -48
.Lcfi46:
	.cfi_offset %r13, -40
.Lcfi47:
	.cfi_offset %r14, -32
.Lcfi48:
	.cfi_offset %r15, -24
	movl	%r9d, -92(%rbp)         # 4-byte Spill
	movl	%r8d, %r15d
	movl	%ecx, %r12d
	movq	%rdx, %r13
	movq	%rsi, %rbx
	movq	%rdi, %r14
	movl	$1310721, %edi          # imm = 0x140001
	callq	enqueue_signature
	movq	%r14, -112(%rbp)
	movq	%rbx, -104(%rbp)
	movq	%r13, -120(%rbp)
	movl	%r12d, -84(%rbp)
	movl	%r15d, -60(%rbp)
	movl	-92(%rbp), %eax         # 4-byte Reload
	movl	%eax, -88(%rbp)
	movq	-104(%rbp), %rdi
	movl	-60(%rbp), %eax
	imull	-88(%rbp), %eax
	movslq	%eax, %rdx
	shlq	$2, %rdx
	xorl	%esi, %esi
	callq	memset
# BB#1:
	movl	$1310722, %edi          # imm = 0x140002
	callq	enqueue_signature
	movl	$730, -84(%rbp)         # imm = 0x2DA
	movl	$1, -68(%rbp)
.LBB7_2:                                # =>This Loop Header: Depth=1
                                        #     Child Loop BB7_4 Depth 2
	movl	$1310723, %edi          # imm = 0x140003
	callq	enqueue_signature
	movl	-68(%rbp), %eax
	movl	-88(%rbp), %ecx
	subl	$1, %ecx
	cmpl	%ecx, %eax
	jge	.LBB7_11
# BB#3:                                 #   in Loop: Header=BB7_2 Depth=1
	movl	$1310724, %edi          # imm = 0x140004
	callq	enqueue_signature
	movl	$1, -64(%rbp)
.LBB7_4:                                #   Parent Loop BB7_2 Depth=1
                                        # =>  This Inner Loop Header: Depth=2
	movl	$1310725, %edi          # imm = 0x140005
	callq	enqueue_signature
	movl	-64(%rbp), %eax
	movl	-60(%rbp), %ecx
	subl	$1, %ecx
	cmpl	%ecx, %eax
	jge	.LBB7_9
# BB#5:                                 #   in Loop: Header=BB7_4 Depth=2
	movl	$1310726, %edi          # imm = 0x140006
	callq	enqueue_signature
	xorl	%eax, %eax
	movl	$100, -44(%rbp)
	movq	-112(%rbp), %rcx
	movl	-68(%rbp), %edx
	subl	$1, %edx
	imull	-60(%rbp), %edx
	movslq	%edx, %rdx
	addq	%rcx, %rdx
	movslq	-64(%rbp), %rcx
	addq	%rdx, %rcx
	addq	$-1, %rcx
	movq	%rcx, -56(%rbp)
	movq	-120(%rbp), %rcx
	movq	-112(%rbp), %rdx
	movl	-68(%rbp), %esi
	imull	-60(%rbp), %esi
	addl	-64(%rbp), %esi
	movslq	%esi, %rsi
	movzbl	(%rdx,%rsi), %edx
	movslq	%edx, %rdx
	addq	%rcx, %rdx
	movq	%rdx, -80(%rbp)
	movq	-80(%rbp), %rcx
	movq	-56(%rbp), %rdx
	leaq	1(%rdx), %rsi
	movq	%rsi, -56(%rbp)
	movzbl	(%rdx), %edx
	movslq	%edx, %rdx
	xorl	%esi, %esi
	subq	%rdx, %rsi
	movzbl	(%rcx,%rsi), %ecx
	addl	-44(%rbp), %ecx
	movl	%ecx, -44(%rbp)
	movq	-80(%rbp), %rcx
	movq	-56(%rbp), %rdx
	leaq	1(%rdx), %rsi
	movq	%rsi, -56(%rbp)
	movzbl	(%rdx), %edx
	movslq	%edx, %rdx
	xorl	%esi, %esi
	subq	%rdx, %rsi
	movzbl	(%rcx,%rsi), %ecx
	addl	-44(%rbp), %ecx
	movl	%ecx, -44(%rbp)
	movq	-80(%rbp), %rcx
	movq	-56(%rbp), %rdx
	movzbl	(%rdx), %edx
	movslq	%edx, %rdx
	xorl	%esi, %esi
	subq	%rdx, %rsi
	movzbl	(%rcx,%rsi), %ecx
	addl	-44(%rbp), %ecx
	movl	%ecx, -44(%rbp)
	movl	-60(%rbp), %ecx
	subl	$2, %ecx
	movq	-56(%rbp), %rdx
	movslq	%ecx, %rcx
	addq	%rdx, %rcx
	movq	%rcx, -56(%rbp)
	movq	-80(%rbp), %rcx
	movq	-56(%rbp), %rdx
	movzbl	(%rdx), %edx
	movslq	%edx, %rdx
	xorl	%esi, %esi
	subq	%rdx, %rsi
	movzbl	(%rcx,%rsi), %ecx
	addl	-44(%rbp), %ecx
	movl	%ecx, -44(%rbp)
	movq	-56(%rbp), %rcx
	addq	$2, %rcx
	movq	%rcx, -56(%rbp)
	movq	-80(%rbp), %rcx
	movq	-56(%rbp), %rdx
	movzbl	(%rdx), %edx
	movslq	%edx, %rdx
	xorl	%esi, %esi
	subq	%rdx, %rsi
	movzbl	(%rcx,%rsi), %ecx
	addl	-44(%rbp), %ecx
	movl	%ecx, -44(%rbp)
	movl	-60(%rbp), %ecx
	subl	$2, %ecx
	movq	-56(%rbp), %rdx
	movslq	%ecx, %rcx
	addq	%rdx, %rcx
	movq	%rcx, -56(%rbp)
	movq	-80(%rbp), %rcx
	movq	-56(%rbp), %rdx
	leaq	1(%rdx), %rsi
	movq	%rsi, -56(%rbp)
	movzbl	(%rdx), %edx
	movslq	%edx, %rdx
	xorl	%esi, %esi
	subq	%rdx, %rsi
	movzbl	(%rcx,%rsi), %ecx
	addl	-44(%rbp), %ecx
	movl	%ecx, -44(%rbp)
	movq	-80(%rbp), %rcx
	movq	-56(%rbp), %rdx
	leaq	1(%rdx), %rsi
	movq	%rsi, -56(%rbp)
	movzbl	(%rdx), %edx
	movslq	%edx, %rdx
	xorl	%esi, %esi
	subq	%rdx, %rsi
	movzbl	(%rcx,%rsi), %ecx
	addl	-44(%rbp), %ecx
	movl	%ecx, -44(%rbp)
	movq	-80(%rbp), %rcx
	movq	-56(%rbp), %rdx
	movzbl	(%rdx), %edx
	movslq	%edx, %rdx
	subq	%rdx, %rax
	movzbl	(%rcx,%rax), %eax
	addl	-44(%rbp), %eax
	movl	%eax, -44(%rbp)
	movl	-44(%rbp), %eax
	cmpl	-84(%rbp), %eax
	jg	.LBB7_7
# BB#6:                                 #   in Loop: Header=BB7_4 Depth=2
	movl	$1310727, %edi          # imm = 0x140007
	callq	enqueue_signature
	movl	-84(%rbp), %eax
	subl	-44(%rbp), %eax
	movq	-104(%rbp), %rcx
	movl	-68(%rbp), %edx
	imull	-60(%rbp), %edx
	addl	-64(%rbp), %edx
	movslq	%edx, %rdx
	movl	%eax, (%rcx,%rdx,4)
.LBB7_7:                                #   in Loop: Header=BB7_4 Depth=2
	movl	$1310728, %edi          # imm = 0x140008
	callq	enqueue_signature
# BB#8:                                 #   in Loop: Header=BB7_4 Depth=2
	movl	$1310729, %edi          # imm = 0x140009
	callq	enqueue_signature
	movl	-64(%rbp), %eax
	addl	$1, %eax
	movl	%eax, -64(%rbp)
	jmp	.LBB7_4
.LBB7_9:                                #   in Loop: Header=BB7_2 Depth=1
	movl	$1310730, %edi          # imm = 0x14000A
	callq	enqueue_signature
# BB#10:                                #   in Loop: Header=BB7_2 Depth=1
	movl	$1310731, %edi          # imm = 0x14000B
	callq	enqueue_signature
	movl	-68(%rbp), %eax
	addl	$1, %eax
	movl	%eax, -68(%rbp)
	jmp	.LBB7_2
.LBB7_11:
	movl	$1310732, %edi          # imm = 0x14000C
	callq	enqueue_signature_with_return
	movl	-124(%rbp), %eax
	addq	$88, %rsp
	popq	%rbx
	popq	%r12
	popq	%r13
	popq	%r14
	popq	%r15
	popq	%rbp
	retq
.Lfunc_end7:
	.size	susan_principle_small, .Lfunc_end7-susan_principle_small
	.cfi_endproc
                                        # -- End function
	.globl	median                  # -- Begin function median
	.p2align	4, 0x90
	.type	median,@function
median:                                 # @median
	.cfi_startproc
# BB#0:
	pushq	%rbp
.Lcfi49:
	.cfi_def_cfa_offset 16
.Lcfi50:
	.cfi_offset %rbp, -16
	movq	%rsp, %rbp
.Lcfi51:
	.cfi_def_cfa_register %rbp
	pushq	%r15
	pushq	%r14
	pushq	%r12
	pushq	%rbx
	subq	$80, %rsp
.Lcfi52:
	.cfi_offset %rbx, -48
.Lcfi53:
	.cfi_offset %r12, -40
.Lcfi54:
	.cfi_offset %r14, -32
.Lcfi55:
	.cfi_offset %r15, -24
	movl	%ecx, %r14d
	movl	%edx, %r15d
	movl	%esi, %r12d
	movq	%rdi, %rbx
	movl	$1376257, %edi          # imm = 0x150001
	callq	enqueue_signature
	movq	%rbx, -64(%rbp)
	movl	%r12d, -48(%rbp)
	movl	%r15d, -44(%rbp)
	movl	%r14d, -40(%rbp)
	movq	-64(%rbp), %rax
	movl	-48(%rbp), %ecx
	subl	$1, %ecx
	imull	-40(%rbp), %ecx
	addl	-44(%rbp), %ecx
	subl	$1, %ecx
	movslq	%ecx, %rcx
	movzbl	(%rax,%rcx), %eax
	movl	%eax, -96(%rbp)
	movq	-64(%rbp), %rax
	movl	-48(%rbp), %ecx
	subl	$1, %ecx
	imull	-40(%rbp), %ecx
	addl	-44(%rbp), %ecx
	movslq	%ecx, %rcx
	movzbl	(%rax,%rcx), %eax
	movl	%eax, -92(%rbp)
	movq	-64(%rbp), %rax
	movl	-48(%rbp), %ecx
	subl	$1, %ecx
	imull	-40(%rbp), %ecx
	addl	-44(%rbp), %ecx
	addl	$1, %ecx
	movslq	%ecx, %rcx
	movzbl	(%rax,%rcx), %eax
	movl	%eax, -88(%rbp)
	movq	-64(%rbp), %rax
	movl	-48(%rbp), %ecx
	imull	-40(%rbp), %ecx
	addl	-44(%rbp), %ecx
	subl	$1, %ecx
	movslq	%ecx, %rcx
	movzbl	(%rax,%rcx), %eax
	movl	%eax, -84(%rbp)
	movq	-64(%rbp), %rax
	movl	-48(%rbp), %ecx
	imull	-40(%rbp), %ecx
	addl	-44(%rbp), %ecx
	addl	$1, %ecx
	movslq	%ecx, %rcx
	movzbl	(%rax,%rcx), %eax
	movl	%eax, -80(%rbp)
	movq	-64(%rbp), %rax
	movl	-48(%rbp), %ecx
	addl	$1, %ecx
	imull	-40(%rbp), %ecx
	addl	-44(%rbp), %ecx
	subl	$1, %ecx
	movslq	%ecx, %rcx
	movzbl	(%rax,%rcx), %eax
	movl	%eax, -76(%rbp)
	movq	-64(%rbp), %rax
	movl	-48(%rbp), %ecx
	addl	$1, %ecx
	imull	-40(%rbp), %ecx
	addl	-44(%rbp), %ecx
	movslq	%ecx, %rcx
	movzbl	(%rax,%rcx), %eax
	movl	%eax, -72(%rbp)
	movq	-64(%rbp), %rax
	movl	-48(%rbp), %ecx
	addl	$1, %ecx
	imull	-40(%rbp), %ecx
	addl	-44(%rbp), %ecx
	addl	$1, %ecx
	movslq	%ecx, %rcx
	movzbl	(%rax,%rcx), %eax
	movl	%eax, -68(%rbp)
	movl	$0, -52(%rbp)
.LBB8_1:                                # =>This Loop Header: Depth=1
                                        #     Child Loop BB8_3 Depth 2
	movl	$1376258, %edi          # imm = 0x150002
	callq	enqueue_signature
	cmpl	$7, -52(%rbp)
	jge	.LBB8_10
# BB#2:                                 #   in Loop: Header=BB8_1 Depth=1
	movl	$1376259, %edi          # imm = 0x150003
	callq	enqueue_signature
	movl	$0, -36(%rbp)
.LBB8_3:                                #   Parent Loop BB8_1 Depth=1
                                        # =>  This Inner Loop Header: Depth=2
	movl	$1376260, %edi          # imm = 0x150004
	callq	enqueue_signature
	movl	$7, %eax
	movl	-36(%rbp), %ecx
	subl	-52(%rbp), %eax
	cmpl	%eax, %ecx
	jge	.LBB8_8
# BB#4:                                 #   in Loop: Header=BB8_3 Depth=2
	movl	$1376261, %edi          # imm = 0x150005
	callq	enqueue_signature
	movslq	-36(%rbp), %rax
	movl	-96(%rbp,%rax,4), %eax
	movl	-36(%rbp), %ecx
	addl	$1, %ecx
	movslq	%ecx, %rcx
	cmpl	-96(%rbp,%rcx,4), %eax
	jle	.LBB8_6
# BB#5:                                 #   in Loop: Header=BB8_3 Depth=2
	movl	$1376262, %edi          # imm = 0x150006
	callq	enqueue_signature
	movslq	-36(%rbp), %rax
	movl	-96(%rbp,%rax,4), %eax
	movl	%eax, -100(%rbp)
	movl	-36(%rbp), %eax
	addl	$1, %eax
	cltq
	movl	-96(%rbp,%rax,4), %eax
	movslq	-36(%rbp), %rcx
	movl	%eax, -96(%rbp,%rcx,4)
	movl	-100(%rbp), %eax
	movl	-36(%rbp), %ecx
	addl	$1, %ecx
	movslq	%ecx, %rcx
	movl	%eax, -96(%rbp,%rcx,4)
.LBB8_6:                                #   in Loop: Header=BB8_3 Depth=2
	movl	$1376263, %edi          # imm = 0x150007
	callq	enqueue_signature
# BB#7:                                 #   in Loop: Header=BB8_3 Depth=2
	movl	$1376264, %edi          # imm = 0x150008
	callq	enqueue_signature
	movl	-36(%rbp), %eax
	addl	$1, %eax
	movl	%eax, -36(%rbp)
	jmp	.LBB8_3
.LBB8_8:                                #   in Loop: Header=BB8_1 Depth=1
	movl	$1376265, %edi          # imm = 0x150009
	callq	enqueue_signature
# BB#9:                                 #   in Loop: Header=BB8_1 Depth=1
	movl	$1376266, %edi          # imm = 0x15000A
	callq	enqueue_signature
	movl	-52(%rbp), %eax
	addl	$1, %eax
	movl	%eax, -52(%rbp)
	jmp	.LBB8_1
.LBB8_10:
	movl	$1376267, %edi          # imm = 0x15000B
	callq	enqueue_signature_with_return
	movl	$2, %ecx
	movl	-84(%rbp), %eax
	addl	-80(%rbp), %eax
	cltd
	idivl	%ecx
	movzbl	%al, %eax
	addq	$80, %rsp
	popq	%rbx
	popq	%r12
	popq	%r14
	popq	%r15
	popq	%rbp
	retq
.Lfunc_end8:
	.size	median, .Lfunc_end8-median
	.cfi_endproc
                                        # -- End function
	.globl	enlarge                 # -- Begin function enlarge
	.p2align	4, 0x90
	.type	enlarge,@function
enlarge:                                # @enlarge
	.cfi_startproc
# BB#0:
	pushq	%rbp
.Lcfi56:
	.cfi_def_cfa_offset 16
.Lcfi57:
	.cfi_offset %rbp, -16
	movq	%rsp, %rbp
.Lcfi58:
	.cfi_def_cfa_register %rbp
	pushq	%r15
	pushq	%r14
	pushq	%r13
	pushq	%r12
	pushq	%rbx
	subq	$56, %rsp
.Lcfi59:
	.cfi_offset %rbx, -56
.Lcfi60:
	.cfi_offset %r12, -48
.Lcfi61:
	.cfi_offset %r13, -40
.Lcfi62:
	.cfi_offset %r14, -32
.Lcfi63:
	.cfi_offset %r15, -24
	movl	%r8d, %r14d
	movq	%rcx, %r15
	movq	%rdx, %r12
	movq	%rsi, %r13
	movq	%rdi, %rbx
	movl	$1441793, %edi          # imm = 0x160001
	callq	enqueue_signature
	movq	%rbx, -88(%rbp)
	movq	%r13, -72(%rbp)
	movq	%r12, -56(%rbp)
	movq	%r15, -80(%rbp)
	movl	%r14d, -44(%rbp)
	movl	$0, -48(%rbp)
.LBB9_1:                                # =>This Inner Loop Header: Depth=1
	movl	$1441794, %edi          # imm = 0x160002
	callq	enqueue_signature
	movl	-48(%rbp), %eax
	movq	-80(%rbp), %rcx
	cmpl	(%rcx), %eax
	jge	.LBB9_4
# BB#2:                                 #   in Loop: Header=BB9_1 Depth=1
	movl	$1441795, %edi          # imm = 0x160003
	callq	enqueue_signature
	movq	-72(%rbp), %rax
	movl	-48(%rbp), %ecx
	addl	-44(%rbp), %ecx
	movq	-56(%rbp), %rdx
	movl	(%rdx), %edx
	movl	-44(%rbp), %esi
	shll	$1, %esi
	addl	%edx, %esi
	imull	%ecx, %esi
	movslq	%esi, %rcx
	addq	%rax, %rcx
	movslq	-44(%rbp), %rdi
	addq	%rcx, %rdi
	movq	-88(%rbp), %rax
	movq	(%rax), %rax
	movl	-48(%rbp), %ecx
	movq	-56(%rbp), %rdx
	imull	(%rdx), %ecx
	movslq	%ecx, %rsi
	addq	%rax, %rsi
	movq	-56(%rbp), %rax
	movslq	(%rax), %rdx
	callq	memcpy
# BB#3:                                 #   in Loop: Header=BB9_1 Depth=1
	movl	$1441796, %edi          # imm = 0x160004
	callq	enqueue_signature
	movl	-48(%rbp), %eax
	addl	$1, %eax
	movl	%eax, -48(%rbp)
	jmp	.LBB9_1
.LBB9_4:
	movl	$1441797, %edi          # imm = 0x160005
	callq	enqueue_signature
	movl	$0, -48(%rbp)
.LBB9_5:                                # =>This Inner Loop Header: Depth=1
	movl	$1441798, %edi          # imm = 0x160006
	callq	enqueue_signature
	movl	-48(%rbp), %eax
	cmpl	-44(%rbp), %eax
	jge	.LBB9_9
# BB#6:                                 #   in Loop: Header=BB9_5 Depth=1
	movl	$1441799, %edi          # imm = 0x160007
	callq	enqueue_signature
	movq	-72(%rbp), %rax
	movl	-44(%rbp), %ecx
	subl	$1, %ecx
	subl	-48(%rbp), %ecx
	movq	-56(%rbp), %rdx
	movl	(%rdx), %edx
	movl	-44(%rbp), %esi
	shll	$1, %esi
	addl	%edx, %esi
	imull	%ecx, %esi
	movslq	%esi, %rcx
	addq	%rax, %rcx
	movslq	-44(%rbp), %rdi
	addq	%rcx, %rdi
	movq	-88(%rbp), %rax
	movq	(%rax), %rax
	movl	-48(%rbp), %ecx
	movq	-56(%rbp), %rdx
	imull	(%rdx), %ecx
	movslq	%ecx, %rsi
	addq	%rax, %rsi
	movq	-56(%rbp), %rax
	movslq	(%rax), %rdx
	callq	memcpy
# BB#7:                                 #   in Loop: Header=BB9_5 Depth=1
	movl	$1441800, %edi          # imm = 0x160008
	callq	enqueue_signature
	movq	-72(%rbp), %rax
	movq	-80(%rbp), %rcx
	movl	(%rcx), %ecx
	addl	-44(%rbp), %ecx
	addl	-48(%rbp), %ecx
	movq	-56(%rbp), %rdx
	movl	(%rdx), %edx
	movl	-44(%rbp), %esi
	shll	$1, %esi
	addl	%edx, %esi
	imull	%ecx, %esi
	movslq	%esi, %rcx
	addq	%rax, %rcx
	movslq	-44(%rbp), %rdi
	addq	%rcx, %rdi
	movq	-88(%rbp), %rax
	movq	(%rax), %rax
	movq	-80(%rbp), %rcx
	movl	(%rcx), %ecx
	subl	-48(%rbp), %ecx
	subl	$1, %ecx
	movq	-56(%rbp), %rdx
	imull	(%rdx), %ecx
	movslq	%ecx, %rsi
	addq	%rax, %rsi
	movq	-56(%rbp), %rax
	movslq	(%rax), %rdx
	callq	memcpy
# BB#8:                                 #   in Loop: Header=BB9_5 Depth=1
	movl	$1441801, %edi          # imm = 0x160009
	callq	enqueue_signature
	movl	-48(%rbp), %eax
	addl	$1, %eax
	movl	%eax, -48(%rbp)
	jmp	.LBB9_5
.LBB9_9:
	movl	$1441802, %edi          # imm = 0x16000A
	callq	enqueue_signature
	movl	$0, -48(%rbp)
.LBB9_10:                               # =>This Loop Header: Depth=1
                                        #     Child Loop BB9_12 Depth 2
	movl	$1441803, %edi          # imm = 0x16000B
	callq	enqueue_signature
	movl	-48(%rbp), %eax
	cmpl	-44(%rbp), %eax
	jge	.LBB9_17
# BB#11:                                #   in Loop: Header=BB9_10 Depth=1
	movl	$1441804, %edi          # imm = 0x16000C
	callq	enqueue_signature
	movl	$0, -60(%rbp)
.LBB9_12:                               #   Parent Loop BB9_10 Depth=1
                                        # =>  This Inner Loop Header: Depth=2
	movl	$1441805, %edi          # imm = 0x16000D
	callq	enqueue_signature
	movl	-60(%rbp), %eax
	movq	-80(%rbp), %rcx
	movl	(%rcx), %ecx
	movl	-44(%rbp), %edx
	shll	$1, %edx
	addl	%ecx, %edx
	cmpl	%edx, %eax
	jge	.LBB9_15
# BB#13:                                #   in Loop: Header=BB9_12 Depth=2
	movl	$1441806, %edi          # imm = 0x16000E
	callq	enqueue_signature
	movq	-72(%rbp), %rax
	movl	-60(%rbp), %ecx
	movq	-56(%rbp), %rdx
	movl	(%rdx), %edx
	movl	-44(%rbp), %esi
	shll	$1, %esi
	addl	%edx, %esi
	imull	%ecx, %esi
	addl	-44(%rbp), %esi
	addl	-48(%rbp), %esi
	movslq	%esi, %rcx
	movb	(%rax,%rcx), %al
	movq	-72(%rbp), %rcx
	movl	-60(%rbp), %edx
	movq	-56(%rbp), %rsi
	movl	(%rsi), %esi
	movl	-44(%rbp), %edi
	shll	$1, %edi
	addl	%esi, %edi
	imull	%edx, %edi
	addl	-44(%rbp), %edi
	subl	$1, %edi
	subl	-48(%rbp), %edi
	movslq	%edi, %rdx
	movb	%al, (%rcx,%rdx)
	movq	-72(%rbp), %rax
	movl	-60(%rbp), %ecx
	movq	-56(%rbp), %rdx
	movl	(%rdx), %edx
	movl	-44(%rbp), %esi
	shll	$1, %esi
	addl	%edx, %esi
	imull	%ecx, %esi
	movq	-56(%rbp), %rcx
	addl	(%rcx), %esi
	addl	-44(%rbp), %esi
	subl	$1, %esi
	subl	-48(%rbp), %esi
	movslq	%esi, %rcx
	movb	(%rax,%rcx), %al
	movq	-72(%rbp), %rcx
	movl	-60(%rbp), %edx
	movq	-56(%rbp), %rsi
	movl	(%rsi), %esi
	movl	-44(%rbp), %edi
	shll	$1, %edi
	addl	%esi, %edi
	imull	%edx, %edi
	movq	-56(%rbp), %rdx
	addl	(%rdx), %edi
	addl	-44(%rbp), %edi
	addl	-48(%rbp), %edi
	movslq	%edi, %rdx
	movb	%al, (%rcx,%rdx)
# BB#14:                                #   in Loop: Header=BB9_12 Depth=2
	movl	$1441807, %edi          # imm = 0x16000F
	callq	enqueue_signature
	movl	-60(%rbp), %eax
	addl	$1, %eax
	movl	%eax, -60(%rbp)
	jmp	.LBB9_12
.LBB9_15:                               #   in Loop: Header=BB9_10 Depth=1
	movl	$1441808, %edi          # imm = 0x160010
	callq	enqueue_signature
# BB#16:                                #   in Loop: Header=BB9_10 Depth=1
	movl	$1441809, %edi          # imm = 0x160011
	callq	enqueue_signature
	movl	-48(%rbp), %eax
	addl	$1, %eax
	movl	%eax, -48(%rbp)
	jmp	.LBB9_10
.LBB9_17:
	movl	$1441810, %edi          # imm = 0x160012
	callq	enqueue_signature_with_return
	movl	-44(%rbp), %eax
	shll	$1, %eax
	movq	-56(%rbp), %rcx
	addl	(%rcx), %eax
	movl	%eax, (%rcx)
	movl	-44(%rbp), %eax
	shll	$1, %eax
	movq	-80(%rbp), %rcx
	addl	(%rcx), %eax
	movl	%eax, (%rcx)
	movq	-72(%rbp), %rax
	movq	-88(%rbp), %rcx
	movq	%rax, (%rcx)
	movl	-92(%rbp), %eax
	addq	$56, %rsp
	popq	%rbx
	popq	%r12
	popq	%r13
	popq	%r14
	popq	%r15
	popq	%rbp
	retq
.Lfunc_end9:
	.size	enlarge, .Lfunc_end9-enlarge
	.cfi_endproc
                                        # -- End function
	.section	.rodata.cst8,"aM",@progbits,8
	.p2align	3               # -- Begin function susan_smoothing
.LCPI10_0:
	.quad	4609434218613702656     # double 1.5
.LCPI10_2:
	.quad	4636737291354636288     # double 100
	.section	.rodata.cst4,"aM",@progbits,4
	.p2align	2
.LCPI10_1:
	.long	1097859072              # float 15
	.text
	.globl	susan_smoothing
	.p2align	4, 0x90
	.type	susan_smoothing,@function
susan_smoothing:                        # @susan_smoothing
	.cfi_startproc
# BB#0:
	pushq	%rbp
.Lcfi64:
	.cfi_def_cfa_offset 16
.Lcfi65:
	.cfi_offset %rbp, -16
	movq	%rsp, %rbp
.Lcfi66:
	.cfi_def_cfa_register %rbp
	pushq	%r15
	pushq	%r14
	pushq	%r13
	pushq	%r12
	pushq	%rbx
	subq	$152, %rsp
.Lcfi67:
	.cfi_offset %rbx, -56
.Lcfi68:
	.cfi_offset %r12, -48
.Lcfi69:
	.cfi_offset %r13, -40
.Lcfi70:
	.cfi_offset %r14, -32
.Lcfi71:
	.cfi_offset %r15, -24
	movq	%r8, %r14
	movl	%ecx, %r15d
	movl	%edx, %r12d
	movsd	%xmm0, -160(%rbp)       # 8-byte Spill
	movq	%rsi, %r13
	movl	%edi, %ebx
	movl	$1572865, %edi          # imm = 0x180001
	callq	enqueue_signature
	movsd	-160(%rbp), %xmm0       # 8-byte Reload
                                        # xmm0 = mem[0],zero
	cvtsd2ss	%xmm0, %xmm0
	movl	%ebx, -148(%rbp)
	movq	%r13, -128(%rbp)
	movss	%xmm0, -108(%rbp)
	movl	%r12d, -72(%rbp)
	movl	%r15d, -84(%rbp)
	movq	%r14, -184(%rbp)
	movq	-128(%rbp), %rax
	movq	%rax, -120(%rbp)
	cmpl	$0, -148(%rbp)
	jne	.LBB10_2
# BB#1:
	movl	$1572866, %edi          # imm = 0x180002
	callq	enqueue_signature
	movsd	.LCPI10_0(%rip), %xmm0  # xmm0 = mem[0],zero
	cvtss2sd	-108(%rbp), %xmm1
	mulsd	%xmm0, %xmm1
	cvttsd2si	%xmm1, %eax
	addl	$1, %eax
	movl	%eax, -60(%rbp)
	jmp	.LBB10_3
.LBB10_2:
	movl	$1572867, %edi          # imm = 0x180003
	callq	enqueue_signature
	movl	$1, -60(%rbp)
.LBB10_3:
	movl	$1572868, %edi          # imm = 0x180004
	callq	enqueue_signature
	movss	.LCPI10_1(%rip), %xmm0  # xmm0 = mem[0],zero,zero,zero
	movl	$0, -52(%rbp)
	movss	-108(%rbp), %xmm1       # xmm1 = mem[0],zero,zero,zero
	ucomiss	%xmm0, %xmm1
	jbe	.LBB10_8
# BB#4:
	movl	$1572869, %edi          # imm = 0x180005
	callq	enqueue_signature
	cmpl	$0, -52(%rbp)
	jne	.LBB10_8
# BB#5:
	movl	$1572870, %edi          # imm = 0x180006
	callq	enqueue_signature
	movabsq	$.L.str.25, %rdi
	cvtss2sd	-108(%rbp), %xmm0
	movb	$1, %al
	callq	printf
# BB#6:
	movl	$1572871, %edi          # imm = 0x180007
	callq	enqueue_signature
	movabsq	$.L.str.26, %rdi
	movb	$0, %al
	callq	printf
# BB#7:
	movl	$1572872, %edi          # imm = 0x180008
	callq	enqueue_signature
	movabsq	$.L.str.27, %rdi
	movb	$0, %al
	callq	printf
.LBB10_8:
	movl	$1572873, %edi          # imm = 0x180009
	callq	enqueue_signature
	movl	-60(%rbp), %eax
	shll	$1, %eax
	addl	$1, %eax
	cmpl	-72(%rbp), %eax
	jg	.LBB10_10
# BB#9:
	movl	$1572874, %edi          # imm = 0x18000A
	callq	enqueue_signature
	movl	-60(%rbp), %eax
	shll	$1, %eax
	addl	$1, %eax
	cmpl	-84(%rbp), %eax
	jle	.LBB10_11
.LBB10_10:
	movl	$1572875, %edi          # imm = 0x18000B
	callq	enqueue_signature
	movabsq	$.L.str.28, %rdi
	movl	-60(%rbp), %esi
	movl	-72(%rbp), %edx
	movl	-84(%rbp), %ecx
	movb	$0, %al
	callq	printf
.LBB10_11:
	movl	$1572876, %edi          # imm = 0x18000C
	callq	enqueue_signature
	movl	-72(%rbp), %eax
	movl	-60(%rbp), %ecx
	shll	$1, %ecx
	addl	%eax, %ecx
	movl	-84(%rbp), %eax
	movl	-60(%rbp), %edx
	shll	$1, %edx
	addl	%eax, %edx
	imull	%ecx, %edx
	movslq	%edx, %rdi
	callq	malloc
	movq	%rax, %rbx
# BB#12:
	movl	$1572877, %edi          # imm = 0x18000D
	callq	enqueue_signature_with_call
	leaq	-128(%rbp), %rdi
	leaq	-72(%rbp), %rdx
	leaq	-84(%rbp), %rcx
	movq	%rbx, -192(%rbp)
	movq	-192(%rbp), %rsi
	movl	-60(%rbp), %r8d
	callq	enlarge
# BB#13:
	movl	$1572878, %edi          # imm = 0x18000E
	callq	enqueue_signature
	cmpl	$0, -148(%rbp)
	jne	.LBB10_45
# BB#14:
	movl	$1572879, %edi          # imm = 0x18000F
	callq	enqueue_signature
	movl	-60(%rbp), %eax
	shll	$1, %eax
	addl	$1, %eax
	movl	%eax, -136(%rbp)
	movl	-72(%rbp), %eax
	subl	-136(%rbp), %eax
	movl	%eax, -164(%rbp)
	movl	-136(%rbp), %eax
	imull	-136(%rbp), %eax
	movslq	%eax, %rdi
	callq	malloc
	movq	%rax, %rbx
# BB#15:
	movl	$1572880, %edi          # imm = 0x180010
	callq	enqueue_signature
	xorl	%eax, %eax
	movq	%rbx, -176(%rbp)
	movq	-176(%rbp), %rcx
	movq	%rcx, -144(%rbp)
	movss	-108(%rbp), %xmm0       # xmm0 = mem[0],zero,zero,zero
	mulss	-108(%rbp), %xmm0
	movd	%xmm0, %ecx
	xorl	$2147483648, %ecx       # imm = 0x80000000
	movd	%ecx, %xmm0
	movss	%xmm0, -168(%rbp)
	subl	-60(%rbp), %eax
	movl	%eax, -68(%rbp)
.LBB10_16:                              # =>This Loop Header: Depth=1
                                        #     Child Loop BB10_18 Depth 2
	movl	$1572881, %edi          # imm = 0x180011
	callq	enqueue_signature
	movl	-68(%rbp), %eax
	cmpl	-60(%rbp), %eax
	jg	.LBB10_24
# BB#17:                                #   in Loop: Header=BB10_16 Depth=1
	movl	$1572882, %edi          # imm = 0x180012
	callq	enqueue_signature
	xorl	%eax, %eax
	subl	-60(%rbp), %eax
	movl	%eax, -64(%rbp)
.LBB10_18:                              #   Parent Loop BB10_16 Depth=1
                                        # =>  This Inner Loop Header: Depth=2
	movl	$1572883, %edi          # imm = 0x180013
	callq	enqueue_signature
	movl	-64(%rbp), %eax
	cmpl	-60(%rbp), %eax
	jg	.LBB10_22
# BB#19:                                #   in Loop: Header=BB10_18 Depth=2
	movl	$1572884, %edi          # imm = 0x180014
	callq	enqueue_signature
	movl	-68(%rbp), %eax
	imull	-68(%rbp), %eax
	movl	-64(%rbp), %ecx
	imull	-64(%rbp), %ecx
	addl	%eax, %ecx
	cvtsi2ssl	%ecx, %xmm0
	divss	-168(%rbp), %xmm0
	cvtss2sd	%xmm0, %xmm0
	callq	exp
	movsd	%xmm0, -160(%rbp)       # 8-byte Spill
# BB#20:                                #   in Loop: Header=BB10_18 Depth=2
	movl	$1572885, %edi          # imm = 0x180015
	callq	enqueue_signature
	movsd	.LCPI10_2(%rip), %xmm0  # xmm0 = mem[0],zero
	mulsd	-160(%rbp), %xmm0       # 8-byte Folded Reload
	cvttsd2si	%xmm0, %eax
	movl	%eax, -104(%rbp)
	movl	-104(%rbp), %eax
	movq	-144(%rbp), %rcx
	leaq	1(%rcx), %rdx
	movq	%rdx, -144(%rbp)
	movb	%al, (%rcx)
# BB#21:                                #   in Loop: Header=BB10_18 Depth=2
	movl	$1572886, %edi          # imm = 0x180016
	callq	enqueue_signature
	movl	-64(%rbp), %eax
	addl	$1, %eax
	movl	%eax, -64(%rbp)
	jmp	.LBB10_18
.LBB10_22:                              #   in Loop: Header=BB10_16 Depth=1
	movl	$1572887, %edi          # imm = 0x180017
	callq	enqueue_signature
# BB#23:                                #   in Loop: Header=BB10_16 Depth=1
	movl	$1572888, %edi          # imm = 0x180018
	callq	enqueue_signature
	movl	-68(%rbp), %eax
	addl	$1, %eax
	movl	%eax, -68(%rbp)
	jmp	.LBB10_16
.LBB10_24:
	movl	$1572889, %edi          # imm = 0x180019
	callq	enqueue_signature
	movl	-60(%rbp), %eax
	movl	%eax, -68(%rbp)
.LBB10_25:                              # =>This Loop Header: Depth=1
                                        #     Child Loop BB10_27 Depth 2
                                        #       Child Loop BB10_29 Depth 3
                                        #         Child Loop BB10_31 Depth 4
	movl	$1572890, %edi          # imm = 0x18001A
	callq	enqueue_signature
	movl	-68(%rbp), %eax
	movl	-84(%rbp), %ecx
	subl	-60(%rbp), %ecx
	cmpl	%ecx, %eax
	jge	.LBB10_44
# BB#26:                                #   in Loop: Header=BB10_25 Depth=1
	movl	$1572891, %edi          # imm = 0x18001B
	callq	enqueue_signature
	movl	-60(%rbp), %eax
	movl	%eax, -64(%rbp)
.LBB10_27:                              #   Parent Loop BB10_25 Depth=1
                                        # =>  This Loop Header: Depth=2
                                        #       Child Loop BB10_29 Depth 3
                                        #         Child Loop BB10_31 Depth 4
	movl	$1572892, %edi          # imm = 0x18001C
	callq	enqueue_signature
	movl	-64(%rbp), %eax
	movl	-72(%rbp), %ecx
	subl	-60(%rbp), %ecx
	cmpl	%ecx, %eax
	jge	.LBB10_42
# BB#28:                                #   in Loop: Header=BB10_27 Depth=2
	movl	$1572893, %edi          # imm = 0x18001D
	callq	enqueue_signature
	xorl	%eax, %eax
	xorl	%ecx, %ecx
	movl	$0, -56(%rbp)
	movl	$0, -52(%rbp)
	movq	-176(%rbp), %rdx
	movq	%rdx, -144(%rbp)
	movq	-128(%rbp), %rdx
	movl	-68(%rbp), %esi
	subl	-60(%rbp), %esi
	imull	-72(%rbp), %esi
	movslq	%esi, %rsi
	addq	%rdx, %rsi
	movslq	-64(%rbp), %rdx
	addq	%rsi, %rdx
	movslq	-60(%rbp), %rsi
	subq	%rsi, %rcx
	addq	%rdx, %rcx
	movq	%rcx, -80(%rbp)
	movq	-128(%rbp), %rcx
	movl	-68(%rbp), %edx
	imull	-72(%rbp), %edx
	addl	-64(%rbp), %edx
	movslq	%edx, %rdx
	movzbl	(%rcx,%rdx), %ecx
	movl	%ecx, -100(%rbp)
	movq	-184(%rbp), %rcx
	movslq	-100(%rbp), %rdx
	addq	%rcx, %rdx
	movq	%rdx, -96(%rbp)
	subl	-60(%rbp), %eax
	movl	%eax, -132(%rbp)
.LBB10_29:                              #   Parent Loop BB10_25 Depth=1
                                        #     Parent Loop BB10_27 Depth=2
                                        # =>    This Loop Header: Depth=3
                                        #         Child Loop BB10_31 Depth 4
	movl	$1572894, %edi          # imm = 0x18001E
	callq	enqueue_signature
	movl	-132(%rbp), %eax
	cmpl	-60(%rbp), %eax
	jg	.LBB10_36
# BB#30:                                #   in Loop: Header=BB10_29 Depth=3
	movl	$1572895, %edi          # imm = 0x18001F
	callq	enqueue_signature
	xorl	%eax, %eax
	subl	-60(%rbp), %eax
	movl	%eax, -104(%rbp)
.LBB10_31:                              #   Parent Loop BB10_25 Depth=1
                                        #     Parent Loop BB10_27 Depth=2
                                        #       Parent Loop BB10_29 Depth=3
                                        # =>      This Inner Loop Header: Depth=4
	movl	$1572896, %edi          # imm = 0x180020
	callq	enqueue_signature
	movl	-104(%rbp), %eax
	cmpl	-60(%rbp), %eax
	jg	.LBB10_34
# BB#32:                                #   in Loop: Header=BB10_31 Depth=4
	movl	$1572897, %edi          # imm = 0x180021
	callq	enqueue_signature
	xorl	%eax, %eax
	movq	-80(%rbp), %rcx
	leaq	1(%rcx), %rdx
	movq	%rdx, -80(%rbp)
	movzbl	(%rcx), %ecx
	movl	%ecx, -48(%rbp)
	movq	-144(%rbp), %rcx
	leaq	1(%rcx), %rdx
	movq	%rdx, -144(%rbp)
	movzbl	(%rcx), %ecx
	movq	-96(%rbp), %rdx
	movslq	-48(%rbp), %rsi
	subq	%rsi, %rax
	movzbl	(%rdx,%rax), %eax
	imull	%ecx, %eax
	movl	%eax, -44(%rbp)
	movl	-44(%rbp), %eax
	addl	-56(%rbp), %eax
	movl	%eax, -56(%rbp)
	movl	-44(%rbp), %eax
	imull	-48(%rbp), %eax
	addl	-52(%rbp), %eax
	movl	%eax, -52(%rbp)
# BB#33:                                #   in Loop: Header=BB10_31 Depth=4
	movl	$1572898, %edi          # imm = 0x180022
	callq	enqueue_signature
	movl	-104(%rbp), %eax
	addl	$1, %eax
	movl	%eax, -104(%rbp)
	jmp	.LBB10_31
.LBB10_34:                              #   in Loop: Header=BB10_29 Depth=3
	movl	$1572899, %edi          # imm = 0x180023
	callq	enqueue_signature
	movl	-164(%rbp), %eax
	movq	-80(%rbp), %rcx
	cltq
	addq	%rcx, %rax
	movq	%rax, -80(%rbp)
# BB#35:                                #   in Loop: Header=BB10_29 Depth=3
	movl	$1572900, %edi          # imm = 0x180024
	callq	enqueue_signature
	movl	-132(%rbp), %eax
	addl	$1, %eax
	movl	%eax, -132(%rbp)
	jmp	.LBB10_29
.LBB10_36:                              #   in Loop: Header=BB10_27 Depth=2
	movl	$1572901, %edi          # imm = 0x180025
	callq	enqueue_signature
	movl	-56(%rbp), %eax
	subl	$10000, %eax            # imm = 0x2710
	movl	%eax, -44(%rbp)
	cmpl	$0, -44(%rbp)
	jne	.LBB10_39
# BB#37:                                #   in Loop: Header=BB10_27 Depth=2
	movl	$1572902, %edi          # imm = 0x180026
	callq	enqueue_signature_with_call
	movq	-128(%rbp), %rdi
	movl	-68(%rbp), %esi
	movl	-64(%rbp), %edx
	movl	-72(%rbp), %ecx
	callq	median
	movb	%al, %bl
# BB#38:                                #   in Loop: Header=BB10_27 Depth=2
	movl	$1572903, %edi          # imm = 0x180027
	callq	enqueue_signature
	movq	-120(%rbp), %rax
	leaq	1(%rax), %rcx
	movq	%rcx, -120(%rbp)
	movb	%bl, (%rax)
	jmp	.LBB10_40
.LBB10_39:                              #   in Loop: Header=BB10_27 Depth=2
	movl	$1572904, %edi          # imm = 0x180028
	callq	enqueue_signature
	movl	-52(%rbp), %eax
	imull	$10000, -100(%rbp), %ecx # imm = 0x2710
	subl	%ecx, %eax
	cltd
	idivl	-44(%rbp)
	movq	-120(%rbp), %rcx
	leaq	1(%rcx), %rdx
	movq	%rdx, -120(%rbp)
	movb	%al, (%rcx)
.LBB10_40:                              #   in Loop: Header=BB10_27 Depth=2
	movl	$1572905, %edi          # imm = 0x180029
	callq	enqueue_signature
# BB#41:                                #   in Loop: Header=BB10_27 Depth=2
	movl	$1572906, %edi          # imm = 0x18002A
	callq	enqueue_signature
	movl	-64(%rbp), %eax
	addl	$1, %eax
	movl	%eax, -64(%rbp)
	jmp	.LBB10_27
.LBB10_42:                              #   in Loop: Header=BB10_25 Depth=1
	movl	$1572907, %edi          # imm = 0x18002B
	callq	enqueue_signature
# BB#43:                                #   in Loop: Header=BB10_25 Depth=1
	movl	$1572908, %edi          # imm = 0x18002C
	callq	enqueue_signature
	movl	-68(%rbp), %eax
	addl	$1, %eax
	movl	%eax, -68(%rbp)
	jmp	.LBB10_25
.LBB10_44:
	movl	$1572909, %edi          # imm = 0x18002D
	callq	enqueue_signature
	jmp	.LBB10_58
.LBB10_45:
	movl	$1572910, %edi          # imm = 0x18002E
	callq	enqueue_signature
	movl	$1, -68(%rbp)
.LBB10_46:                              # =>This Loop Header: Depth=1
                                        #     Child Loop BB10_48 Depth 2
	movl	$1572911, %edi          # imm = 0x18002F
	callq	enqueue_signature
	movl	-68(%rbp), %eax
	movl	-84(%rbp), %ecx
	subl	$1, %ecx
	cmpl	%ecx, %eax
	jge	.LBB10_57
# BB#47:                                #   in Loop: Header=BB10_46 Depth=1
	movl	$1572912, %edi          # imm = 0x180030
	callq	enqueue_signature
	movl	$1, -64(%rbp)
.LBB10_48:                              #   Parent Loop BB10_46 Depth=1
                                        # =>  This Inner Loop Header: Depth=2
	movl	$1572913, %edi          # imm = 0x180031
	callq	enqueue_signature
	movl	-64(%rbp), %eax
	movl	-72(%rbp), %ecx
	subl	$1, %ecx
	cmpl	%ecx, %eax
	jge	.LBB10_55
# BB#49:                                #   in Loop: Header=BB10_48 Depth=2
	movl	$1572914, %edi          # imm = 0x180032
	callq	enqueue_signature
	xorl	%eax, %eax
	movl	$0, -56(%rbp)
	movl	$0, -52(%rbp)
	movq	-128(%rbp), %rcx
	movl	-68(%rbp), %edx
	subl	$1, %edx
	imull	-72(%rbp), %edx
	movslq	%edx, %rdx
	addq	%rcx, %rdx
	movslq	-64(%rbp), %rcx
	addq	%rdx, %rcx
	addq	$-1, %rcx
	movq	%rcx, -80(%rbp)
	movq	-128(%rbp), %rcx
	movl	-68(%rbp), %edx
	imull	-72(%rbp), %edx
	addl	-64(%rbp), %edx
	movslq	%edx, %rdx
	movzbl	(%rcx,%rdx), %ecx
	movl	%ecx, -100(%rbp)
	movq	-184(%rbp), %rcx
	movslq	-100(%rbp), %rdx
	addq	%rcx, %rdx
	movq	%rdx, -96(%rbp)
	movq	-80(%rbp), %rcx
	leaq	1(%rcx), %rdx
	movq	%rdx, -80(%rbp)
	movzbl	(%rcx), %ecx
	movl	%ecx, -48(%rbp)
	movq	-96(%rbp), %rcx
	movslq	-48(%rbp), %rdx
	xorl	%esi, %esi
	subq	%rdx, %rsi
	movzbl	(%rcx,%rsi), %ecx
	movl	%ecx, -44(%rbp)
	movl	-44(%rbp), %ecx
	addl	-56(%rbp), %ecx
	movl	%ecx, -56(%rbp)
	movl	-44(%rbp), %ecx
	imull	-48(%rbp), %ecx
	addl	-52(%rbp), %ecx
	movl	%ecx, -52(%rbp)
	movq	-80(%rbp), %rcx
	leaq	1(%rcx), %rdx
	movq	%rdx, -80(%rbp)
	movzbl	(%rcx), %ecx
	movl	%ecx, -48(%rbp)
	movq	-96(%rbp), %rcx
	movslq	-48(%rbp), %rdx
	xorl	%esi, %esi
	subq	%rdx, %rsi
	movzbl	(%rcx,%rsi), %ecx
	movl	%ecx, -44(%rbp)
	movl	-44(%rbp), %ecx
	addl	-56(%rbp), %ecx
	movl	%ecx, -56(%rbp)
	movl	-44(%rbp), %ecx
	imull	-48(%rbp), %ecx
	addl	-52(%rbp), %ecx
	movl	%ecx, -52(%rbp)
	movq	-80(%rbp), %rcx
	movzbl	(%rcx), %ecx
	movl	%ecx, -48(%rbp)
	movq	-96(%rbp), %rcx
	movslq	-48(%rbp), %rdx
	xorl	%esi, %esi
	subq	%rdx, %rsi
	movzbl	(%rcx,%rsi), %ecx
	movl	%ecx, -44(%rbp)
	movl	-44(%rbp), %ecx
	addl	-56(%rbp), %ecx
	movl	%ecx, -56(%rbp)
	movl	-44(%rbp), %ecx
	imull	-48(%rbp), %ecx
	addl	-52(%rbp), %ecx
	movl	%ecx, -52(%rbp)
	movl	-72(%rbp), %ecx
	subl	$2, %ecx
	movq	-80(%rbp), %rdx
	movslq	%ecx, %rcx
	addq	%rdx, %rcx
	movq	%rcx, -80(%rbp)
	movq	-80(%rbp), %rcx
	leaq	1(%rcx), %rdx
	movq	%rdx, -80(%rbp)
	movzbl	(%rcx), %ecx
	movl	%ecx, -48(%rbp)
	movq	-96(%rbp), %rcx
	movslq	-48(%rbp), %rdx
	xorl	%esi, %esi
	subq	%rdx, %rsi
	movzbl	(%rcx,%rsi), %ecx
	movl	%ecx, -44(%rbp)
	movl	-44(%rbp), %ecx
	addl	-56(%rbp), %ecx
	movl	%ecx, -56(%rbp)
	movl	-44(%rbp), %ecx
	imull	-48(%rbp), %ecx
	addl	-52(%rbp), %ecx
	movl	%ecx, -52(%rbp)
	movq	-80(%rbp), %rcx
	leaq	1(%rcx), %rdx
	movq	%rdx, -80(%rbp)
	movzbl	(%rcx), %ecx
	movl	%ecx, -48(%rbp)
	movq	-96(%rbp), %rcx
	movslq	-48(%rbp), %rdx
	xorl	%esi, %esi
	subq	%rdx, %rsi
	movzbl	(%rcx,%rsi), %ecx
	movl	%ecx, -44(%rbp)
	movl	-44(%rbp), %ecx
	addl	-56(%rbp), %ecx
	movl	%ecx, -56(%rbp)
	movl	-44(%rbp), %ecx
	imull	-48(%rbp), %ecx
	addl	-52(%rbp), %ecx
	movl	%ecx, -52(%rbp)
	movq	-80(%rbp), %rcx
	movzbl	(%rcx), %ecx
	movl	%ecx, -48(%rbp)
	movq	-96(%rbp), %rcx
	movslq	-48(%rbp), %rdx
	xorl	%esi, %esi
	subq	%rdx, %rsi
	movzbl	(%rcx,%rsi), %ecx
	movl	%ecx, -44(%rbp)
	movl	-44(%rbp), %ecx
	addl	-56(%rbp), %ecx
	movl	%ecx, -56(%rbp)
	movl	-44(%rbp), %ecx
	imull	-48(%rbp), %ecx
	addl	-52(%rbp), %ecx
	movl	%ecx, -52(%rbp)
	movl	-72(%rbp), %ecx
	subl	$2, %ecx
	movq	-80(%rbp), %rdx
	movslq	%ecx, %rcx
	addq	%rdx, %rcx
	movq	%rcx, -80(%rbp)
	movq	-80(%rbp), %rcx
	leaq	1(%rcx), %rdx
	movq	%rdx, -80(%rbp)
	movzbl	(%rcx), %ecx
	movl	%ecx, -48(%rbp)
	movq	-96(%rbp), %rcx
	movslq	-48(%rbp), %rdx
	xorl	%esi, %esi
	subq	%rdx, %rsi
	movzbl	(%rcx,%rsi), %ecx
	movl	%ecx, -44(%rbp)
	movl	-44(%rbp), %ecx
	addl	-56(%rbp), %ecx
	movl	%ecx, -56(%rbp)
	movl	-44(%rbp), %ecx
	imull	-48(%rbp), %ecx
	addl	-52(%rbp), %ecx
	movl	%ecx, -52(%rbp)
	movq	-80(%rbp), %rcx
	leaq	1(%rcx), %rdx
	movq	%rdx, -80(%rbp)
	movzbl	(%rcx), %ecx
	movl	%ecx, -48(%rbp)
	movq	-96(%rbp), %rcx
	movslq	-48(%rbp), %rdx
	xorl	%esi, %esi
	subq	%rdx, %rsi
	movzbl	(%rcx,%rsi), %ecx
	movl	%ecx, -44(%rbp)
	movl	-44(%rbp), %ecx
	addl	-56(%rbp), %ecx
	movl	%ecx, -56(%rbp)
	movl	-44(%rbp), %ecx
	imull	-48(%rbp), %ecx
	addl	-52(%rbp), %ecx
	movl	%ecx, -52(%rbp)
	movq	-80(%rbp), %rcx
	movzbl	(%rcx), %ecx
	movl	%ecx, -48(%rbp)
	movq	-96(%rbp), %rcx
	movslq	-48(%rbp), %rdx
	subq	%rdx, %rax
	movzbl	(%rcx,%rax), %eax
	movl	%eax, -44(%rbp)
	movl	-44(%rbp), %eax
	addl	-56(%rbp), %eax
	movl	%eax, -56(%rbp)
	movl	-44(%rbp), %eax
	imull	-48(%rbp), %eax
	addl	-52(%rbp), %eax
	movl	%eax, -52(%rbp)
	movl	-56(%rbp), %eax
	subl	$100, %eax
	movl	%eax, -44(%rbp)
	cmpl	$0, -44(%rbp)
	jne	.LBB10_52
# BB#50:                                #   in Loop: Header=BB10_48 Depth=2
	movl	$1572915, %edi          # imm = 0x180033
	callq	enqueue_signature_with_call
	movq	-128(%rbp), %rdi
	movl	-68(%rbp), %esi
	movl	-64(%rbp), %edx
	movl	-72(%rbp), %ecx
	callq	median
	movb	%al, %bl
# BB#51:                                #   in Loop: Header=BB10_48 Depth=2
	movl	$1572916, %edi          # imm = 0x180034
	callq	enqueue_signature
	movq	-120(%rbp), %rax
	leaq	1(%rax), %rcx
	movq	%rcx, -120(%rbp)
	movb	%bl, (%rax)
	jmp	.LBB10_53
.LBB10_52:                              #   in Loop: Header=BB10_48 Depth=2
	movl	$1572917, %edi          # imm = 0x180035
	callq	enqueue_signature
	movl	-52(%rbp), %eax
	imull	$100, -100(%rbp), %ecx
	subl	%ecx, %eax
	cltd
	idivl	-44(%rbp)
	movq	-120(%rbp), %rcx
	leaq	1(%rcx), %rdx
	movq	%rdx, -120(%rbp)
	movb	%al, (%rcx)
.LBB10_53:                              #   in Loop: Header=BB10_48 Depth=2
	movl	$1572918, %edi          # imm = 0x180036
	callq	enqueue_signature
# BB#54:                                #   in Loop: Header=BB10_48 Depth=2
	movl	$1572919, %edi          # imm = 0x180037
	callq	enqueue_signature
	movl	-64(%rbp), %eax
	addl	$1, %eax
	movl	%eax, -64(%rbp)
	jmp	.LBB10_48
.LBB10_55:                              #   in Loop: Header=BB10_46 Depth=1
	movl	$1572920, %edi          # imm = 0x180038
	callq	enqueue_signature
# BB#56:                                #   in Loop: Header=BB10_46 Depth=1
	movl	$1572921, %edi          # imm = 0x180039
	callq	enqueue_signature
	movl	-68(%rbp), %eax
	addl	$1, %eax
	movl	%eax, -68(%rbp)
	jmp	.LBB10_46
.LBB10_57:
	movl	$1572922, %edi          # imm = 0x18003A
	callq	enqueue_signature
.LBB10_58:
	movl	$1572923, %edi          # imm = 0x18003B
	callq	enqueue_signature_with_return
	addq	$152, %rsp
	popq	%rbx
	popq	%r12
	popq	%r13
	popq	%r14
	popq	%r15
	popq	%rbp
	retq
.Lfunc_end10:
	.size	susan_smoothing, .Lfunc_end10-susan_smoothing
	.cfi_endproc
                                        # -- End function
	.globl	edge_draw               # -- Begin function edge_draw
	.p2align	4, 0x90
	.type	edge_draw,@function
edge_draw:                              # @edge_draw
	.cfi_startproc
# BB#0:
	pushq	%rbp
.Lcfi72:
	.cfi_def_cfa_offset 16
.Lcfi73:
	.cfi_offset %rbp, -16
	movq	%rsp, %rbp
.Lcfi74:
	.cfi_def_cfa_register %rbp
	pushq	%r15
	pushq	%r14
	pushq	%r13
	pushq	%r12
	pushq	%rbx
	subq	$72, %rsp
.Lcfi75:
	.cfi_offset %rbx, -56
.Lcfi76:
	.cfi_offset %r12, -48
.Lcfi77:
	.cfi_offset %r13, -40
.Lcfi78:
	.cfi_offset %r14, -32
.Lcfi79:
	.cfi_offset %r15, -24
	movl	%r8d, %r14d
	movl	%ecx, %r15d
	movl	%edx, %r12d
	movq	%rsi, %r13
	movq	%rdi, %rbx
	movl	$1638401, %edi          # imm = 0x190001
	callq	enqueue_signature
	movq	%rbx, -96(%rbp)
	movq	%r13, -80(%rbp)
	movl	%r12d, -56(%rbp)
	movl	%r15d, -68(%rbp)
	movl	%r14d, -84(%rbp)
	cmpl	$0, -84(%rbp)
	jne	.LBB11_8
# BB#1:
	movl	$1638402, %edi          # imm = 0x190002
	callq	enqueue_signature
	movq	-80(%rbp), %rax
	movq	%rax, -64(%rbp)
	movl	$0, -52(%rbp)
.LBB11_2:                               # =>This Inner Loop Header: Depth=1
	movl	$1638403, %edi          # imm = 0x190003
	callq	enqueue_signature
	movl	-52(%rbp), %eax
	movl	-56(%rbp), %ecx
	imull	-68(%rbp), %ecx
	cmpl	%ecx, %eax
	jge	.LBB11_7
# BB#3:                                 #   in Loop: Header=BB11_2 Depth=1
	movl	$1638404, %edi          # imm = 0x190004
	callq	enqueue_signature
	movq	-64(%rbp), %rax
	movzbl	(%rax), %eax
	cmpl	$8, %eax
	jge	.LBB11_5
# BB#4:                                 #   in Loop: Header=BB11_2 Depth=1
	movl	$1638405, %edi          # imm = 0x190005
	callq	enqueue_signature
	xorl	%eax, %eax
	movq	-96(%rbp), %rcx
	movq	-64(%rbp), %rdx
	movq	-80(%rbp), %rsi
	subq	%rsi, %rdx
	addq	%rcx, %rdx
	movslq	-56(%rbp), %rcx
	subq	%rcx, %rax
	addq	%rdx, %rax
	addq	$-1, %rax
	movq	%rax, -48(%rbp)
	movq	-48(%rbp), %rax
	leaq	1(%rax), %rcx
	movq	%rcx, -48(%rbp)
	movb	$-1, (%rax)
	movq	-48(%rbp), %rax
	leaq	1(%rax), %rcx
	movq	%rcx, -48(%rbp)
	movb	$-1, (%rax)
	movq	-48(%rbp), %rax
	movb	$-1, (%rax)
	movl	-56(%rbp), %eax
	subl	$2, %eax
	movq	-48(%rbp), %rcx
	cltq
	addq	%rcx, %rax
	movq	%rax, -48(%rbp)
	movq	-48(%rbp), %rax
	leaq	1(%rax), %rcx
	movq	%rcx, -48(%rbp)
	movb	$-1, (%rax)
	movq	-48(%rbp), %rax
	addq	$1, %rax
	movq	%rax, -48(%rbp)
	movq	-48(%rbp), %rax
	movb	$-1, (%rax)
	movl	-56(%rbp), %eax
	subl	$2, %eax
	movq	-48(%rbp), %rcx
	cltq
	addq	%rcx, %rax
	movq	%rax, -48(%rbp)
	movq	-48(%rbp), %rax
	leaq	1(%rax), %rcx
	movq	%rcx, -48(%rbp)
	movb	$-1, (%rax)
	movq	-48(%rbp), %rax
	leaq	1(%rax), %rcx
	movq	%rcx, -48(%rbp)
	movb	$-1, (%rax)
	movq	-48(%rbp), %rax
	movb	$-1, (%rax)
.LBB11_5:                               #   in Loop: Header=BB11_2 Depth=1
	movl	$1638406, %edi          # imm = 0x190006
	callq	enqueue_signature
	movq	-64(%rbp), %rax
	addq	$1, %rax
	movq	%rax, -64(%rbp)
# BB#6:                                 #   in Loop: Header=BB11_2 Depth=1
	movl	$1638407, %edi          # imm = 0x190007
	callq	enqueue_signature
	movl	-52(%rbp), %eax
	addl	$1, %eax
	movl	%eax, -52(%rbp)
	jmp	.LBB11_2
.LBB11_7:
	movl	$1638408, %edi          # imm = 0x190008
	callq	enqueue_signature
.LBB11_8:
	movl	$1638409, %edi          # imm = 0x190009
	callq	enqueue_signature
	movq	-80(%rbp), %rax
	movq	%rax, -64(%rbp)
	movl	$0, -52(%rbp)
.LBB11_9:                               # =>This Inner Loop Header: Depth=1
	movl	$1638410, %edi          # imm = 0x19000A
	callq	enqueue_signature
	movl	-52(%rbp), %eax
	movl	-56(%rbp), %ecx
	imull	-68(%rbp), %ecx
	cmpl	%ecx, %eax
	jge	.LBB11_14
# BB#10:                                #   in Loop: Header=BB11_9 Depth=1
	movl	$1638411, %edi          # imm = 0x19000B
	callq	enqueue_signature
	movq	-64(%rbp), %rax
	movzbl	(%rax), %eax
	cmpl	$8, %eax
	jge	.LBB11_12
# BB#11:                                #   in Loop: Header=BB11_9 Depth=1
	movl	$1638412, %edi          # imm = 0x19000C
	callq	enqueue_signature
	movq	-96(%rbp), %rax
	movq	-64(%rbp), %rcx
	movq	-80(%rbp), %rdx
	subq	%rdx, %rcx
	movb	$0, (%rax,%rcx)
.LBB11_12:                              #   in Loop: Header=BB11_9 Depth=1
	movl	$1638413, %edi          # imm = 0x19000D
	callq	enqueue_signature
	movq	-64(%rbp), %rax
	addq	$1, %rax
	movq	%rax, -64(%rbp)
# BB#13:                                #   in Loop: Header=BB11_9 Depth=1
	movl	$1638414, %edi          # imm = 0x19000E
	callq	enqueue_signature
	movl	-52(%rbp), %eax
	addl	$1, %eax
	movl	%eax, -52(%rbp)
	jmp	.LBB11_9
.LBB11_14:
	movl	$1638415, %edi          # imm = 0x19000F
	callq	enqueue_signature_with_return
	movl	-100(%rbp), %eax
	addq	$72, %rsp
	popq	%rbx
	popq	%r12
	popq	%r13
	popq	%r14
	popq	%r15
	popq	%rbp
	retq
.Lfunc_end11:
	.size	edge_draw, .Lfunc_end11-edge_draw
	.cfi_endproc
                                        # -- End function
	.section	.rodata.cst8,"aM",@progbits,8
	.p2align	3               # -- Begin function susan_thin
.LCPI12_0:
	.quad	4604480259023595110     # double 0.69999999999999996
	.text
	.globl	susan_thin
	.p2align	4, 0x90
	.type	susan_thin,@function
susan_thin:                             # @susan_thin
	.cfi_startproc
# BB#0:
	pushq	%rbp
.Lcfi80:
	.cfi_def_cfa_offset 16
.Lcfi81:
	.cfi_offset %rbp, -16
	movq	%rsp, %rbp
.Lcfi82:
	.cfi_def_cfa_register %rbp
	pushq	%r15
	pushq	%r14
	pushq	%r12
	pushq	%rbx
	subq	$192, %rsp
.Lcfi83:
	.cfi_offset %rbx, -48
.Lcfi84:
	.cfi_offset %r12, -40
.Lcfi85:
	.cfi_offset %r14, -32
.Lcfi86:
	.cfi_offset %r15, -24
	movl	%ecx, %r14d
	movl	%edx, %r15d
	movq	%rsi, %r12
	movq	%rdi, %rbx
	movl	$1703937, %edi          # imm = 0x1A0001
	callq	enqueue_signature
	movq	%rbx, -152(%rbp)
	movq	%r12, -56(%rbp)
	movl	%r15d, -44(%rbp)
	movl	%r14d, -204(%rbp)
	movl	$4, -40(%rbp)
.LBB12_1:                               # =>This Loop Header: Depth=1
                                        #     Child Loop BB12_3 Depth 2
                                        #       Child Loop BB12_33 Depth 3
                                        #         Child Loop BB12_35 Depth 4
	movl	$1703938, %edi          # imm = 0x1A0002
	callq	enqueue_signature
	movl	-40(%rbp), %eax
	movl	-204(%rbp), %ecx
	subl	$4, %ecx
	cmpl	%ecx, %eax
	jge	.LBB12_103
# BB#2:                                 #   in Loop: Header=BB12_1 Depth=1
	movl	$1703939, %edi          # imm = 0x1A0003
	callq	enqueue_signature
	movl	$4, -36(%rbp)
.LBB12_3:                               #   Parent Loop BB12_1 Depth=1
                                        # =>  This Loop Header: Depth=2
                                        #       Child Loop BB12_33 Depth 3
                                        #         Child Loop BB12_35 Depth 4
	movl	$1703940, %edi          # imm = 0x1A0004
	callq	enqueue_signature
	movl	-36(%rbp), %eax
	movl	-44(%rbp), %ecx
	subl	$4, %ecx
	cmpl	%ecx, %eax
	jge	.LBB12_101
# BB#4:                                 #   in Loop: Header=BB12_3 Depth=2
	movl	$1703941, %edi          # imm = 0x1A0005
	callq	enqueue_signature
	movq	-56(%rbp), %rax
	movl	-40(%rbp), %ecx
	imull	-44(%rbp), %ecx
	addl	-36(%rbp), %ecx
	movslq	%ecx, %rcx
	movzbl	(%rax,%rcx), %eax
	cmpl	$8, %eax
	jge	.LBB12_99
# BB#5:                                 #   in Loop: Header=BB12_3 Depth=2
	movl	$1703942, %edi          # imm = 0x1A0006
	callq	enqueue_signature
	movq	-152(%rbp), %rax
	movl	-40(%rbp), %ecx
	imull	-44(%rbp), %ecx
	addl	-36(%rbp), %ecx
	movslq	%ecx, %rcx
	movl	(%rax,%rcx,4), %eax
	movl	%eax, -200(%rbp)
	movq	-56(%rbp), %rax
	movl	-40(%rbp), %ecx
	subl	$1, %ecx
	imull	-44(%rbp), %ecx
	movslq	%ecx, %rcx
	addq	%rax, %rcx
	movslq	-36(%rbp), %rax
	addq	%rcx, %rax
	addq	$-1, %rax
	movq	%rax, -176(%rbp)
	movq	-176(%rbp), %rax
	movzbl	(%rax), %eax
	cmpl	$8, %eax
	setl	%al
	andb	$1, %al
	movzbl	%al, %eax
	movq	-176(%rbp), %rcx
	movzbl	1(%rcx), %ecx
	cmpl	$8, %ecx
	setl	%cl
	andb	$1, %cl
	movzbl	%cl, %ecx
	addl	%eax, %ecx
	movq	-176(%rbp), %rax
	movzbl	2(%rax), %eax
	cmpl	$8, %eax
	setl	%al
	andb	$1, %al
	movzbl	%al, %eax
	addl	%ecx, %eax
	movq	-176(%rbp), %rcx
	movslq	-44(%rbp), %rdx
	movzbl	(%rcx,%rdx), %ecx
	cmpl	$8, %ecx
	setl	%cl
	andb	$1, %cl
	movzbl	%cl, %ecx
	addl	%eax, %ecx
	movq	-176(%rbp), %rax
	movslq	-44(%rbp), %rdx
	movzbl	2(%rax,%rdx), %eax
	cmpl	$8, %eax
	setl	%al
	andb	$1, %al
	movzbl	%al, %eax
	addl	%ecx, %eax
	movq	-176(%rbp), %rcx
	movslq	-44(%rbp), %rdx
	addq	%rcx, %rdx
	movslq	-44(%rbp), %rcx
	movzbl	(%rdx,%rcx), %ecx
	cmpl	$8, %ecx
	setl	%cl
	andb	$1, %cl
	movzbl	%cl, %ecx
	addl	%eax, %ecx
	movq	-176(%rbp), %rax
	movslq	-44(%rbp), %rdx
	addq	%rax, %rdx
	movslq	-44(%rbp), %rax
	movzbl	1(%rdx,%rax), %eax
	cmpl	$8, %eax
	setl	%al
	andb	$1, %al
	movzbl	%al, %eax
	addl	%ecx, %eax
	movq	-176(%rbp), %rcx
	movslq	-44(%rbp), %rdx
	addq	%rcx, %rdx
	movslq	-44(%rbp), %rcx
	movzbl	2(%rdx,%rcx), %ecx
	cmpl	$8, %ecx
	setl	%cl
	andb	$1, %cl
	movzbl	%cl, %ecx
	addl	%eax, %ecx
	movl	%ecx, -160(%rbp)
	cmpl	$0, -160(%rbp)
	jne	.LBB12_7
# BB#6:                                 #   in Loop: Header=BB12_3 Depth=2
	movl	$1703943, %edi          # imm = 0x1A0007
	callq	enqueue_signature
	movq	-56(%rbp), %rax
	movl	-40(%rbp), %ecx
	imull	-44(%rbp), %ecx
	addl	-36(%rbp), %ecx
	movslq	%ecx, %rcx
	movb	$100, (%rax,%rcx)
.LBB12_7:                               #   in Loop: Header=BB12_3 Depth=2
	movl	$1703944, %edi          # imm = 0x1A0008
	callq	enqueue_signature
	cmpl	$1, -160(%rbp)
	jne	.LBB12_54
# BB#8:                                 #   in Loop: Header=BB12_3 Depth=2
	movl	$1703945, %edi          # imm = 0x1A0009
	callq	enqueue_signature
	movq	-56(%rbp), %rax
	movl	-40(%rbp), %ecx
	imull	-44(%rbp), %ecx
	addl	-36(%rbp), %ecx
	movslq	%ecx, %rcx
	movzbl	(%rax,%rcx), %eax
	cmpl	$6, %eax
	jge	.LBB12_54
# BB#9:                                 #   in Loop: Header=BB12_3 Depth=2
	movl	$1703946, %edi          # imm = 0x1A000A
	callq	enqueue_signature
	movq	-152(%rbp), %rax
	movl	-40(%rbp), %ecx
	subl	$1, %ecx
	imull	-44(%rbp), %ecx
	addl	-36(%rbp), %ecx
	subl	$1, %ecx
	movslq	%ecx, %rcx
	movl	(%rax,%rcx,4), %eax
	movl	%eax, -112(%rbp)
	movq	-152(%rbp), %rax
	movl	-40(%rbp), %ecx
	subl	$1, %ecx
	imull	-44(%rbp), %ecx
	addl	-36(%rbp), %ecx
	movslq	%ecx, %rcx
	movl	(%rax,%rcx,4), %eax
	movl	%eax, -108(%rbp)
	movq	-152(%rbp), %rax
	movl	-40(%rbp), %ecx
	subl	$1, %ecx
	imull	-44(%rbp), %ecx
	addl	-36(%rbp), %ecx
	addl	$1, %ecx
	movslq	%ecx, %rcx
	movl	(%rax,%rcx,4), %eax
	movl	%eax, -104(%rbp)
	movq	-152(%rbp), %rax
	movl	-40(%rbp), %ecx
	imull	-44(%rbp), %ecx
	addl	-36(%rbp), %ecx
	subl	$1, %ecx
	movslq	%ecx, %rcx
	movl	(%rax,%rcx,4), %eax
	movl	%eax, -100(%rbp)
	movl	$0, -96(%rbp)
	movq	-152(%rbp), %rax
	movl	-40(%rbp), %ecx
	imull	-44(%rbp), %ecx
	addl	-36(%rbp), %ecx
	addl	$1, %ecx
	movslq	%ecx, %rcx
	movl	(%rax,%rcx,4), %eax
	movl	%eax, -92(%rbp)
	movq	-152(%rbp), %rax
	movl	-40(%rbp), %ecx
	addl	$1, %ecx
	imull	-44(%rbp), %ecx
	addl	-36(%rbp), %ecx
	subl	$1, %ecx
	movslq	%ecx, %rcx
	movl	(%rax,%rcx,4), %eax
	movl	%eax, -88(%rbp)
	movq	-152(%rbp), %rax
	movl	-40(%rbp), %ecx
	addl	$1, %ecx
	imull	-44(%rbp), %ecx
	addl	-36(%rbp), %ecx
	movslq	%ecx, %rcx
	movl	(%rax,%rcx,4), %eax
	movl	%eax, -84(%rbp)
	movq	-152(%rbp), %rax
	movl	-40(%rbp), %ecx
	addl	$1, %ecx
	imull	-44(%rbp), %ecx
	addl	-36(%rbp), %ecx
	addl	$1, %ecx
	movslq	%ecx, %rcx
	movl	(%rax,%rcx,4), %eax
	movl	%eax, -80(%rbp)
	movq	-56(%rbp), %rax
	movl	-40(%rbp), %ecx
	subl	$1, %ecx
	imull	-44(%rbp), %ecx
	addl	-36(%rbp), %ecx
	subl	$1, %ecx
	movslq	%ecx, %rcx
	movzbl	(%rax,%rcx), %eax
	cmpl	$8, %eax
	jge	.LBB12_11
# BB#10:                                #   in Loop: Header=BB12_3 Depth=2
	movl	$1703947, %edi          # imm = 0x1A000B
	callq	enqueue_signature
	movl	$0, -112(%rbp)
	movl	$0, -108(%rbp)
	movl	$0, -100(%rbp)
	movl	-104(%rbp), %eax
	shll	$1, %eax
	movl	%eax, -104(%rbp)
	movl	-88(%rbp), %eax
	shll	$1, %eax
	movl	%eax, -88(%rbp)
	imull	$3, -92(%rbp), %eax
	movl	%eax, -92(%rbp)
	imull	$3, -84(%rbp), %eax
	movl	%eax, -84(%rbp)
	movl	-80(%rbp), %eax
	shll	$2, %eax
	movl	%eax, -80(%rbp)
	jmp	.LBB12_32
.LBB12_11:                              #   in Loop: Header=BB12_3 Depth=2
	movl	$1703948, %edi          # imm = 0x1A000C
	callq	enqueue_signature
	movq	-56(%rbp), %rax
	movl	-40(%rbp), %ecx
	subl	$1, %ecx
	imull	-44(%rbp), %ecx
	addl	-36(%rbp), %ecx
	movslq	%ecx, %rcx
	movzbl	(%rax,%rcx), %eax
	cmpl	$8, %eax
	jge	.LBB12_13
# BB#12:                                #   in Loop: Header=BB12_3 Depth=2
	movl	$1703949, %edi          # imm = 0x1A000D
	callq	enqueue_signature
	movl	$0, -108(%rbp)
	movl	$0, -112(%rbp)
	movl	$0, -104(%rbp)
	movl	-100(%rbp), %eax
	shll	$1, %eax
	movl	%eax, -100(%rbp)
	movl	-92(%rbp), %eax
	shll	$1, %eax
	movl	%eax, -92(%rbp)
	imull	$3, -88(%rbp), %eax
	movl	%eax, -88(%rbp)
	imull	$3, -80(%rbp), %eax
	movl	%eax, -80(%rbp)
	movl	-84(%rbp), %eax
	shll	$2, %eax
	movl	%eax, -84(%rbp)
	jmp	.LBB12_31
.LBB12_13:                              #   in Loop: Header=BB12_3 Depth=2
	movl	$1703950, %edi          # imm = 0x1A000E
	callq	enqueue_signature
	movq	-56(%rbp), %rax
	movl	-40(%rbp), %ecx
	subl	$1, %ecx
	imull	-44(%rbp), %ecx
	addl	-36(%rbp), %ecx
	addl	$1, %ecx
	movslq	%ecx, %rcx
	movzbl	(%rax,%rcx), %eax
	cmpl	$8, %eax
	jge	.LBB12_15
# BB#14:                                #   in Loop: Header=BB12_3 Depth=2
	movl	$1703951, %edi          # imm = 0x1A000F
	callq	enqueue_signature
	movl	$0, -104(%rbp)
	movl	$0, -108(%rbp)
	movl	$0, -92(%rbp)
	movl	-112(%rbp), %eax
	shll	$1, %eax
	movl	%eax, -112(%rbp)
	movl	-80(%rbp), %eax
	shll	$1, %eax
	movl	%eax, -80(%rbp)
	imull	$3, -100(%rbp), %eax
	movl	%eax, -100(%rbp)
	imull	$3, -84(%rbp), %eax
	movl	%eax, -84(%rbp)
	movl	-88(%rbp), %eax
	shll	$2, %eax
	movl	%eax, -88(%rbp)
	jmp	.LBB12_30
.LBB12_15:                              #   in Loop: Header=BB12_3 Depth=2
	movl	$1703952, %edi          # imm = 0x1A0010
	callq	enqueue_signature
	movq	-56(%rbp), %rax
	movl	-40(%rbp), %ecx
	imull	-44(%rbp), %ecx
	addl	-36(%rbp), %ecx
	subl	$1, %ecx
	movslq	%ecx, %rcx
	movzbl	(%rax,%rcx), %eax
	cmpl	$8, %eax
	jge	.LBB12_17
# BB#16:                                #   in Loop: Header=BB12_3 Depth=2
	movl	$1703953, %edi          # imm = 0x1A0011
	callq	enqueue_signature
	movl	$0, -100(%rbp)
	movl	$0, -112(%rbp)
	movl	$0, -88(%rbp)
	movl	-108(%rbp), %eax
	shll	$1, %eax
	movl	%eax, -108(%rbp)
	movl	-84(%rbp), %eax
	shll	$1, %eax
	movl	%eax, -84(%rbp)
	imull	$3, -104(%rbp), %eax
	movl	%eax, -104(%rbp)
	imull	$3, -80(%rbp), %eax
	movl	%eax, -80(%rbp)
	movl	-92(%rbp), %eax
	shll	$2, %eax
	movl	%eax, -92(%rbp)
	jmp	.LBB12_29
.LBB12_17:                              #   in Loop: Header=BB12_3 Depth=2
	movl	$1703954, %edi          # imm = 0x1A0012
	callq	enqueue_signature
	movq	-56(%rbp), %rax
	movl	-40(%rbp), %ecx
	imull	-44(%rbp), %ecx
	addl	-36(%rbp), %ecx
	addl	$1, %ecx
	movslq	%ecx, %rcx
	movzbl	(%rax,%rcx), %eax
	cmpl	$8, %eax
	jge	.LBB12_19
# BB#18:                                #   in Loop: Header=BB12_3 Depth=2
	movl	$1703955, %edi          # imm = 0x1A0013
	callq	enqueue_signature
	movl	$0, -92(%rbp)
	movl	$0, -104(%rbp)
	movl	$0, -80(%rbp)
	movl	-108(%rbp), %eax
	shll	$1, %eax
	movl	%eax, -108(%rbp)
	movl	-84(%rbp), %eax
	shll	$1, %eax
	movl	%eax, -84(%rbp)
	imull	$3, -112(%rbp), %eax
	movl	%eax, -112(%rbp)
	imull	$3, -88(%rbp), %eax
	movl	%eax, -88(%rbp)
	movl	-100(%rbp), %eax
	shll	$2, %eax
	movl	%eax, -100(%rbp)
	jmp	.LBB12_28
.LBB12_19:                              #   in Loop: Header=BB12_3 Depth=2
	movl	$1703956, %edi          # imm = 0x1A0014
	callq	enqueue_signature
	movq	-56(%rbp), %rax
	movl	-40(%rbp), %ecx
	addl	$1, %ecx
	imull	-44(%rbp), %ecx
	addl	-36(%rbp), %ecx
	subl	$1, %ecx
	movslq	%ecx, %rcx
	movzbl	(%rax,%rcx), %eax
	cmpl	$8, %eax
	jge	.LBB12_21
# BB#20:                                #   in Loop: Header=BB12_3 Depth=2
	movl	$1703957, %edi          # imm = 0x1A0015
	callq	enqueue_signature
	movl	$0, -88(%rbp)
	movl	$0, -100(%rbp)
	movl	$0, -84(%rbp)
	movl	-112(%rbp), %eax
	shll	$1, %eax
	movl	%eax, -112(%rbp)
	movl	-80(%rbp), %eax
	shll	$1, %eax
	movl	%eax, -80(%rbp)
	imull	$3, -108(%rbp), %eax
	movl	%eax, -108(%rbp)
	imull	$3, -92(%rbp), %eax
	movl	%eax, -92(%rbp)
	movl	-104(%rbp), %eax
	shll	$2, %eax
	movl	%eax, -104(%rbp)
	jmp	.LBB12_27
.LBB12_21:                              #   in Loop: Header=BB12_3 Depth=2
	movl	$1703958, %edi          # imm = 0x1A0016
	callq	enqueue_signature
	movq	-56(%rbp), %rax
	movl	-40(%rbp), %ecx
	addl	$1, %ecx
	imull	-44(%rbp), %ecx
	addl	-36(%rbp), %ecx
	movslq	%ecx, %rcx
	movzbl	(%rax,%rcx), %eax
	cmpl	$8, %eax
	jge	.LBB12_23
# BB#22:                                #   in Loop: Header=BB12_3 Depth=2
	movl	$1703959, %edi          # imm = 0x1A0017
	callq	enqueue_signature
	movl	$0, -84(%rbp)
	movl	$0, -88(%rbp)
	movl	$0, -80(%rbp)
	movl	-100(%rbp), %eax
	shll	$1, %eax
	movl	%eax, -100(%rbp)
	movl	-92(%rbp), %eax
	shll	$1, %eax
	movl	%eax, -92(%rbp)
	imull	$3, -112(%rbp), %eax
	movl	%eax, -112(%rbp)
	imull	$3, -104(%rbp), %eax
	movl	%eax, -104(%rbp)
	movl	-108(%rbp), %eax
	shll	$2, %eax
	movl	%eax, -108(%rbp)
	jmp	.LBB12_26
.LBB12_23:                              #   in Loop: Header=BB12_3 Depth=2
	movl	$1703960, %edi          # imm = 0x1A0018
	callq	enqueue_signature
	movq	-56(%rbp), %rax
	movl	-40(%rbp), %ecx
	addl	$1, %ecx
	imull	-44(%rbp), %ecx
	addl	-36(%rbp), %ecx
	addl	$1, %ecx
	movslq	%ecx, %rcx
	movzbl	(%rax,%rcx), %eax
	cmpl	$8, %eax
	jge	.LBB12_25
# BB#24:                                #   in Loop: Header=BB12_3 Depth=2
	movl	$1703961, %edi          # imm = 0x1A0019
	callq	enqueue_signature
	movl	$0, -80(%rbp)
	movl	$0, -92(%rbp)
	movl	$0, -84(%rbp)
	movl	-88(%rbp), %eax
	shll	$1, %eax
	movl	%eax, -88(%rbp)
	movl	-104(%rbp), %eax
	shll	$1, %eax
	movl	%eax, -104(%rbp)
	imull	$3, -108(%rbp), %eax
	movl	%eax, -108(%rbp)
	imull	$3, -100(%rbp), %eax
	movl	%eax, -100(%rbp)
	movl	-112(%rbp), %eax
	shll	$2, %eax
	movl	%eax, -112(%rbp)
.LBB12_25:                              #   in Loop: Header=BB12_3 Depth=2
	movl	$1703962, %edi          # imm = 0x1A001A
	callq	enqueue_signature
.LBB12_26:                              #   in Loop: Header=BB12_3 Depth=2
	movl	$1703963, %edi          # imm = 0x1A001B
	callq	enqueue_signature
.LBB12_27:                              #   in Loop: Header=BB12_3 Depth=2
	movl	$1703964, %edi          # imm = 0x1A001C
	callq	enqueue_signature
.LBB12_28:                              #   in Loop: Header=BB12_3 Depth=2
	movl	$1703965, %edi          # imm = 0x1A001D
	callq	enqueue_signature
.LBB12_29:                              #   in Loop: Header=BB12_3 Depth=2
	movl	$1703966, %edi          # imm = 0x1A001E
	callq	enqueue_signature
.LBB12_30:                              #   in Loop: Header=BB12_3 Depth=2
	movl	$1703967, %edi          # imm = 0x1A001F
	callq	enqueue_signature
.LBB12_31:                              #   in Loop: Header=BB12_3 Depth=2
	movl	$1703968, %edi          # imm = 0x1A0020
	callq	enqueue_signature
.LBB12_32:                              #   in Loop: Header=BB12_3 Depth=2
	movl	$1703969, %edi          # imm = 0x1A0021
	callq	enqueue_signature
	movl	$0, -180(%rbp)
	movl	$0, -60(%rbp)
.LBB12_33:                              #   Parent Loop BB12_1 Depth=1
                                        #     Parent Loop BB12_3 Depth=2
                                        # =>    This Loop Header: Depth=3
                                        #         Child Loop BB12_35 Depth 4
	movl	$1703970, %edi          # imm = 0x1A0022
	callq	enqueue_signature
	cmpl	$3, -60(%rbp)
	jge	.LBB12_42
# BB#34:                                #   in Loop: Header=BB12_33 Depth=3
	movl	$1703971, %edi          # imm = 0x1A0023
	callq	enqueue_signature
	movl	$0, -64(%rbp)
.LBB12_35:                              #   Parent Loop BB12_1 Depth=1
                                        #     Parent Loop BB12_3 Depth=2
                                        #       Parent Loop BB12_33 Depth=3
                                        # =>      This Inner Loop Header: Depth=4
	movl	$1703972, %edi          # imm = 0x1A0024
	callq	enqueue_signature
	cmpl	$3, -64(%rbp)
	jge	.LBB12_40
# BB#36:                                #   in Loop: Header=BB12_35 Depth=4
	movl	$1703973, %edi          # imm = 0x1A0025
	callq	enqueue_signature
	movl	-60(%rbp), %eax
	addl	-60(%rbp), %eax
	addl	-60(%rbp), %eax
	addl	-64(%rbp), %eax
	cltq
	movl	-112(%rbp,%rax,4), %eax
	cmpl	-180(%rbp), %eax
	jle	.LBB12_38
# BB#37:                                #   in Loop: Header=BB12_35 Depth=4
	movl	$1703974, %edi          # imm = 0x1A0026
	callq	enqueue_signature
	movl	-60(%rbp), %eax
	addl	-60(%rbp), %eax
	addl	-60(%rbp), %eax
	addl	-64(%rbp), %eax
	cltq
	movl	-112(%rbp,%rax,4), %eax
	movl	%eax, -180(%rbp)
	movl	-60(%rbp), %eax
	movl	%eax, -136(%rbp)
	movl	-64(%rbp), %eax
	movl	%eax, -156(%rbp)
.LBB12_38:                              #   in Loop: Header=BB12_35 Depth=4
	movl	$1703975, %edi          # imm = 0x1A0027
	callq	enqueue_signature
# BB#39:                                #   in Loop: Header=BB12_35 Depth=4
	movl	$1703976, %edi          # imm = 0x1A0028
	callq	enqueue_signature
	movl	-64(%rbp), %eax
	addl	$1, %eax
	movl	%eax, -64(%rbp)
	jmp	.LBB12_35
.LBB12_40:                              #   in Loop: Header=BB12_33 Depth=3
	movl	$1703977, %edi          # imm = 0x1A0029
	callq	enqueue_signature
# BB#41:                                #   in Loop: Header=BB12_33 Depth=3
	movl	$1703978, %edi          # imm = 0x1A002A
	callq	enqueue_signature
	movl	-60(%rbp), %eax
	addl	$1, %eax
	movl	%eax, -60(%rbp)
	jmp	.LBB12_33
.LBB12_42:                              #   in Loop: Header=BB12_3 Depth=2
	movl	$1703979, %edi          # imm = 0x1A002B
	callq	enqueue_signature
	cmpl	$0, -180(%rbp)
	jle	.LBB12_53
# BB#43:                                #   in Loop: Header=BB12_3 Depth=2
	movl	$1703980, %edi          # imm = 0x1A002C
	callq	enqueue_signature
	movq	-56(%rbp), %rax
	movl	-40(%rbp), %ecx
	imull	-44(%rbp), %ecx
	addl	-36(%rbp), %ecx
	movslq	%ecx, %rcx
	movzbl	(%rax,%rcx), %eax
	cmpl	$4, %eax
	jge	.LBB12_45
# BB#44:                                #   in Loop: Header=BB12_3 Depth=2
	movl	$1703981, %edi          # imm = 0x1A002D
	callq	enqueue_signature
	movq	-56(%rbp), %rax
	movl	-40(%rbp), %ecx
	addl	-136(%rbp), %ecx
	subl	$1, %ecx
	imull	-44(%rbp), %ecx
	addl	-36(%rbp), %ecx
	addl	-156(%rbp), %ecx
	subl	$1, %ecx
	movslq	%ecx, %rcx
	movb	$4, (%rax,%rcx)
	jmp	.LBB12_46
.LBB12_45:                              #   in Loop: Header=BB12_3 Depth=2
	movl	$1703982, %edi          # imm = 0x1A002E
	callq	enqueue_signature
	movq	-56(%rbp), %rax
	movl	-40(%rbp), %ecx
	imull	-44(%rbp), %ecx
	addl	-36(%rbp), %ecx
	movslq	%ecx, %rcx
	movzbl	(%rax,%rcx), %eax
	addl	$1, %eax
	movq	-56(%rbp), %rcx
	movl	-40(%rbp), %edx
	addl	-136(%rbp), %edx
	subl	$1, %edx
	imull	-44(%rbp), %edx
	addl	-36(%rbp), %edx
	addl	-156(%rbp), %edx
	subl	$1, %edx
	movslq	%edx, %rdx
	movb	%al, (%rcx,%rdx)
.LBB12_46:                              #   in Loop: Header=BB12_3 Depth=2
	movl	$1703983, %edi          # imm = 0x1A002F
	callq	enqueue_signature
	movl	-136(%rbp), %eax
	addl	-136(%rbp), %eax
	addl	-156(%rbp), %eax
	cmpl	$3, %eax
	jge	.LBB12_52
# BB#47:                                #   in Loop: Header=BB12_3 Depth=2
	movl	$1703984, %edi          # imm = 0x1A0030
	callq	enqueue_signature
	movl	-136(%rbp), %eax
	subl	$1, %eax
	addl	-40(%rbp), %eax
	movl	%eax, -40(%rbp)
	movl	-156(%rbp), %eax
	subl	$2, %eax
	addl	-36(%rbp), %eax
	movl	%eax, -36(%rbp)
	cmpl	$4, -40(%rbp)
	jge	.LBB12_49
# BB#48:                                #   in Loop: Header=BB12_3 Depth=2
	movl	$1703985, %edi          # imm = 0x1A0031
	callq	enqueue_signature
	movl	$4, -40(%rbp)
.LBB12_49:                              #   in Loop: Header=BB12_3 Depth=2
	movl	$1703986, %edi          # imm = 0x1A0032
	callq	enqueue_signature
	cmpl	$4, -36(%rbp)
	jge	.LBB12_51
# BB#50:                                #   in Loop: Header=BB12_3 Depth=2
	movl	$1703987, %edi          # imm = 0x1A0033
	callq	enqueue_signature
	movl	$4, -36(%rbp)
.LBB12_51:                              #   in Loop: Header=BB12_3 Depth=2
	movl	$1703988, %edi          # imm = 0x1A0034
	callq	enqueue_signature
.LBB12_52:                              #   in Loop: Header=BB12_3 Depth=2
	movl	$1703989, %edi          # imm = 0x1A0035
	callq	enqueue_signature
.LBB12_53:                              #   in Loop: Header=BB12_3 Depth=2
	movl	$1703990, %edi          # imm = 0x1A0036
	callq	enqueue_signature
.LBB12_54:                              #   in Loop: Header=BB12_3 Depth=2
	movl	$1703991, %edi          # imm = 0x1A0037
	callq	enqueue_signature
	cmpl	$2, -160(%rbp)
	jne	.LBB12_88
# BB#55:                                #   in Loop: Header=BB12_3 Depth=2
	movl	$1703992, %edi          # imm = 0x1A0038
	callq	enqueue_signature
	movq	-56(%rbp), %rax
	movl	-40(%rbp), %ecx
	subl	$1, %ecx
	imull	-44(%rbp), %ecx
	addl	-36(%rbp), %ecx
	subl	$1, %ecx
	movslq	%ecx, %rcx
	movzbl	(%rax,%rcx), %eax
	cmpl	$8, %eax
	setl	%al
	andb	$1, %al
	movzbl	%al, %eax
	movl	%eax, -140(%rbp)
	movq	-56(%rbp), %rax
	movl	-40(%rbp), %ecx
	subl	$1, %ecx
	imull	-44(%rbp), %ecx
	addl	-36(%rbp), %ecx
	addl	$1, %ecx
	movslq	%ecx, %rcx
	movzbl	(%rax,%rcx), %eax
	cmpl	$8, %eax
	setl	%al
	andb	$1, %al
	movzbl	%al, %eax
	movl	%eax, -132(%rbp)
	movq	-56(%rbp), %rax
	movl	-40(%rbp), %ecx
	addl	$1, %ecx
	imull	-44(%rbp), %ecx
	addl	-36(%rbp), %ecx
	subl	$1, %ecx
	movslq	%ecx, %rcx
	movzbl	(%rax,%rcx), %eax
	cmpl	$8, %eax
	setl	%al
	andb	$1, %al
	movzbl	%al, %eax
	movl	%eax, -168(%rbp)
	movq	-56(%rbp), %rax
	movl	-40(%rbp), %ecx
	addl	$1, %ecx
	imull	-44(%rbp), %ecx
	addl	-36(%rbp), %ecx
	addl	$1, %ecx
	movslq	%ecx, %rcx
	movzbl	(%rax,%rcx), %eax
	cmpl	$8, %eax
	setl	%al
	andb	$1, %al
	movzbl	%al, %eax
	movl	%eax, -164(%rbp)
	movl	-140(%rbp), %eax
	addl	-132(%rbp), %eax
	addl	-168(%rbp), %eax
	addl	-164(%rbp), %eax
	cmpl	$2, %eax
	jne	.LBB12_78
# BB#56:                                #   in Loop: Header=BB12_3 Depth=2
	movl	$1703993, %edi          # imm = 0x1A0039
	callq	enqueue_signature
	movl	-140(%rbp), %eax
	orl	-164(%rbp), %eax
	movl	-132(%rbp), %ecx
	orl	-168(%rbp), %ecx
	andl	%eax, %ecx
	cmpl	$0, %ecx
	je	.LBB12_78
# BB#57:                                #   in Loop: Header=BB12_3 Depth=2
	movl	$1703994, %edi          # imm = 0x1A003A
	callq	enqueue_signature
	cmpl	$0, -140(%rbp)
	je	.LBB12_62
# BB#58:                                #   in Loop: Header=BB12_3 Depth=2
	movl	$1703995, %edi          # imm = 0x1A003B
	callq	enqueue_signature
	cmpl	$0, -132(%rbp)
	je	.LBB12_60
# BB#59:                                #   in Loop: Header=BB12_3 Depth=2
	movl	$1703996, %edi          # imm = 0x1A003C
	callq	enqueue_signature
	movl	$0, -64(%rbp)
	movl	$-1, -60(%rbp)
	jmp	.LBB12_61
.LBB12_60:                              #   in Loop: Header=BB12_3 Depth=2
	movl	$1703997, %edi          # imm = 0x1A003D
	callq	enqueue_signature
	movl	$-1, -64(%rbp)
	movl	$0, -60(%rbp)
.LBB12_61:                              #   in Loop: Header=BB12_3 Depth=2
	movl	$1703998, %edi          # imm = 0x1A003E
	callq	enqueue_signature
	jmp	.LBB12_66
.LBB12_62:                              #   in Loop: Header=BB12_3 Depth=2
	movl	$1703999, %edi          # imm = 0x1A003F
	callq	enqueue_signature
	cmpl	$0, -132(%rbp)
	je	.LBB12_64
# BB#63:                                #   in Loop: Header=BB12_3 Depth=2
	movl	$1704000, %edi          # imm = 0x1A0040
	callq	enqueue_signature
	movl	$1, -64(%rbp)
	movl	$0, -60(%rbp)
	jmp	.LBB12_65
.LBB12_64:                              #   in Loop: Header=BB12_3 Depth=2
	movl	$1704001, %edi          # imm = 0x1A0041
	callq	enqueue_signature
	movl	$0, -64(%rbp)
	movl	$1, -60(%rbp)
.LBB12_65:                              #   in Loop: Header=BB12_3 Depth=2
	movl	$1704002, %edi          # imm = 0x1A0042
	callq	enqueue_signature
.LBB12_66:                              #   in Loop: Header=BB12_3 Depth=2
	movl	$1704003, %edi          # imm = 0x1A0043
	callq	enqueue_signature
	movsd	.LCPI12_0(%rip), %xmm0  # xmm0 = mem[0],zero
	movq	-152(%rbp), %rax
	movl	-40(%rbp), %ecx
	addl	-60(%rbp), %ecx
	imull	-44(%rbp), %ecx
	addl	-36(%rbp), %ecx
	addl	-64(%rbp), %ecx
	movslq	%ecx, %rcx
	cvtsi2ssl	(%rax,%rcx,4), %xmm1
	cvtsi2ssl	-200(%rbp), %xmm2
	divss	%xmm2, %xmm1
	cvtss2sd	%xmm1, %xmm1
	ucomisd	%xmm0, %xmm1
	jbe	.LBB12_77
# BB#67:                                #   in Loop: Header=BB12_3 Depth=2
	movl	$1704004, %edi          # imm = 0x1A0044
	callq	enqueue_signature
	cmpl	$0, -64(%rbp)
	jne	.LBB12_71
# BB#68:                                #   in Loop: Header=BB12_3 Depth=2
	movl	$1704005, %edi          # imm = 0x1A0045
	callq	enqueue_signature
	movq	-56(%rbp), %rax
	movl	-40(%rbp), %ecx
	movl	-60(%rbp), %edx
	shll	$1, %edx
	addl	%ecx, %edx
	imull	-44(%rbp), %edx
	addl	-36(%rbp), %edx
	movslq	%edx, %rcx
	movzbl	(%rax,%rcx), %eax
	cmpl	$7, %eax
	jle	.LBB12_71
# BB#69:                                #   in Loop: Header=BB12_3 Depth=2
	movl	$1704006, %edi          # imm = 0x1A0046
	callq	enqueue_signature
	movq	-56(%rbp), %rax
	movl	-40(%rbp), %ecx
	movl	-60(%rbp), %edx
	shll	$1, %edx
	addl	%ecx, %edx
	imull	-44(%rbp), %edx
	addl	-36(%rbp), %edx
	subl	$1, %edx
	movslq	%edx, %rcx
	movzbl	(%rax,%rcx), %eax
	cmpl	$7, %eax
	jle	.LBB12_71
# BB#70:                                #   in Loop: Header=BB12_3 Depth=2
	movl	$1704007, %edi          # imm = 0x1A0047
	callq	enqueue_signature
	movq	-56(%rbp), %rax
	movl	-40(%rbp), %ecx
	movl	-60(%rbp), %edx
	shll	$1, %edx
	addl	%ecx, %edx
	imull	-44(%rbp), %edx
	addl	-36(%rbp), %edx
	addl	$1, %edx
	movslq	%edx, %rcx
	movzbl	(%rax,%rcx), %eax
	cmpl	$7, %eax
	jg	.LBB12_75
.LBB12_71:                              #   in Loop: Header=BB12_3 Depth=2
	movl	$1704008, %edi          # imm = 0x1A0048
	callq	enqueue_signature
	cmpl	$0, -60(%rbp)
	jne	.LBB12_76
# BB#72:                                #   in Loop: Header=BB12_3 Depth=2
	movl	$1704009, %edi          # imm = 0x1A0049
	callq	enqueue_signature
	movq	-56(%rbp), %rax
	movl	-40(%rbp), %ecx
	imull	-44(%rbp), %ecx
	addl	-36(%rbp), %ecx
	movl	-64(%rbp), %edx
	shll	$1, %edx
	addl	%ecx, %edx
	movslq	%edx, %rcx
	movzbl	(%rax,%rcx), %eax
	cmpl	$7, %eax
	jle	.LBB12_76
# BB#73:                                #   in Loop: Header=BB12_3 Depth=2
	movl	$1704010, %edi          # imm = 0x1A004A
	callq	enqueue_signature
	movq	-56(%rbp), %rax
	movl	-40(%rbp), %ecx
	addl	$1, %ecx
	imull	-44(%rbp), %ecx
	addl	-36(%rbp), %ecx
	movl	-64(%rbp), %edx
	shll	$1, %edx
	addl	%ecx, %edx
	movslq	%edx, %rcx
	movzbl	(%rax,%rcx), %eax
	cmpl	$7, %eax
	jle	.LBB12_76
# BB#74:                                #   in Loop: Header=BB12_3 Depth=2
	movl	$1704011, %edi          # imm = 0x1A004B
	callq	enqueue_signature
	movq	-56(%rbp), %rax
	movl	-40(%rbp), %ecx
	subl	$1, %ecx
	imull	-44(%rbp), %ecx
	addl	-36(%rbp), %ecx
	movl	-64(%rbp), %edx
	shll	$1, %edx
	addl	%ecx, %edx
	movslq	%edx, %rcx
	movzbl	(%rax,%rcx), %eax
	cmpl	$7, %eax
	jle	.LBB12_76
.LBB12_75:                              #   in Loop: Header=BB12_3 Depth=2
	movl	$1704012, %edi          # imm = 0x1A004C
	callq	enqueue_signature
	movq	-56(%rbp), %rax
	movl	-40(%rbp), %ecx
	imull	-44(%rbp), %ecx
	addl	-36(%rbp), %ecx
	movslq	%ecx, %rcx
	movb	$100, (%rax,%rcx)
	movq	-56(%rbp), %rax
	movl	-40(%rbp), %ecx
	addl	-60(%rbp), %ecx
	imull	-44(%rbp), %ecx
	addl	-36(%rbp), %ecx
	addl	-64(%rbp), %ecx
	movslq	%ecx, %rcx
	movb	$3, (%rax,%rcx)
.LBB12_76:                              #   in Loop: Header=BB12_3 Depth=2
	movl	$1704013, %edi          # imm = 0x1A004D
	callq	enqueue_signature
.LBB12_77:                              #   in Loop: Header=BB12_3 Depth=2
	movl	$1704014, %edi          # imm = 0x1A004E
	callq	enqueue_signature
	jmp	.LBB12_87
.LBB12_78:                              #   in Loop: Header=BB12_3 Depth=2
	movl	$1704015, %edi          # imm = 0x1A004F
	callq	enqueue_signature
	movq	-56(%rbp), %rax
	movl	-40(%rbp), %ecx
	subl	$1, %ecx
	imull	-44(%rbp), %ecx
	addl	-36(%rbp), %ecx
	movslq	%ecx, %rcx
	movzbl	(%rax,%rcx), %eax
	cmpl	$8, %eax
	setl	%al
	andb	$1, %al
	movzbl	%al, %eax
	movl	%eax, -128(%rbp)
	movq	-56(%rbp), %rax
	movl	-40(%rbp), %ecx
	imull	-44(%rbp), %ecx
	addl	-36(%rbp), %ecx
	addl	$1, %ecx
	movslq	%ecx, %rcx
	movzbl	(%rax,%rcx), %eax
	cmpl	$8, %eax
	setl	%al
	andb	$1, %al
	movzbl	%al, %eax
	movl	%eax, -124(%rbp)
	movq	-56(%rbp), %rax
	movl	-40(%rbp), %ecx
	addl	$1, %ecx
	imull	-44(%rbp), %ecx
	addl	-36(%rbp), %ecx
	movslq	%ecx, %rcx
	movzbl	(%rax,%rcx), %eax
	cmpl	$8, %eax
	setl	%al
	andb	$1, %al
	movzbl	%al, %eax
	movl	%eax, -120(%rbp)
	movq	-56(%rbp), %rax
	movl	-40(%rbp), %ecx
	imull	-44(%rbp), %ecx
	addl	-36(%rbp), %ecx
	subl	$1, %ecx
	movslq	%ecx, %rcx
	movzbl	(%rax,%rcx), %eax
	cmpl	$8, %eax
	setl	%al
	andb	$1, %al
	movzbl	%al, %eax
	movl	%eax, -116(%rbp)
	movl	-128(%rbp), %eax
	addl	-124(%rbp), %eax
	addl	-120(%rbp), %eax
	addl	-116(%rbp), %eax
	cmpl	$2, %eax
	jne	.LBB12_86
# BB#79:                                #   in Loop: Header=BB12_3 Depth=2
	movl	$1704016, %edi          # imm = 0x1A0050
	callq	enqueue_signature
	movl	-116(%rbp), %eax
	orl	-124(%rbp), %eax
	movl	-128(%rbp), %ecx
	orl	-120(%rbp), %ecx
	andl	%eax, %ecx
	cmpl	$0, %ecx
	je	.LBB12_86
# BB#80:                                #   in Loop: Header=BB12_3 Depth=2
	movl	$1704017, %edi          # imm = 0x1A0051
	callq	enqueue_signature
	movl	-128(%rbp), %ecx
	movq	-56(%rbp), %rax
	movl	-40(%rbp), %edx
	subl	$2, %edx
	imull	-44(%rbp), %edx
	addl	-36(%rbp), %edx
	subl	$1, %edx
	movslq	%edx, %rdx
	movzbl	(%rax,%rdx), %eax
	cmpl	$8, %eax
	setl	%al
	andb	$1, %al
	movzbl	%al, %edx
	movq	-56(%rbp), %rax
	movl	-40(%rbp), %esi
	subl	$2, %esi
	imull	-44(%rbp), %esi
	addl	-36(%rbp), %esi
	addl	$1, %esi
	movslq	%esi, %rsi
	movzbl	(%rax,%rsi), %eax
	cmpl	$8, %eax
	setl	%al
	andb	$1, %al
	movzbl	%al, %eax
	orl	%edx, %eax
	andl	%ecx, %eax
	movl	-116(%rbp), %edx
	movq	-56(%rbp), %rcx
	movl	-40(%rbp), %esi
	subl	$1, %esi
	imull	-44(%rbp), %esi
	addl	-36(%rbp), %esi
	subl	$2, %esi
	movslq	%esi, %rsi
	movzbl	(%rcx,%rsi), %ecx
	cmpl	$8, %ecx
	setl	%cl
	andb	$1, %cl
	movzbl	%cl, %esi
	movq	-56(%rbp), %rcx
	movl	-40(%rbp), %edi
	addl	$1, %edi
	imull	-44(%rbp), %edi
	addl	-36(%rbp), %edi
	subl	$2, %edi
	movslq	%edi, %rdi
	movzbl	(%rcx,%rdi), %ecx
	cmpl	$8, %ecx
	setl	%cl
	andb	$1, %cl
	movzbl	%cl, %ecx
	orl	%esi, %ecx
	andl	%edx, %ecx
	orl	%eax, %ecx
	movl	-124(%rbp), %edx
	movq	-56(%rbp), %rax
	movl	-40(%rbp), %esi
	subl	$1, %esi
	imull	-44(%rbp), %esi
	addl	-36(%rbp), %esi
	addl	$2, %esi
	movslq	%esi, %rsi
	movzbl	(%rax,%rsi), %eax
	cmpl	$8, %eax
	setl	%al
	andb	$1, %al
	movzbl	%al, %esi
	movq	-56(%rbp), %rax
	movl	-40(%rbp), %edi
	addl	$1, %edi
	imull	-44(%rbp), %edi
	addl	-36(%rbp), %edi
	addl	$2, %edi
	movslq	%edi, %rdi
	movzbl	(%rax,%rdi), %eax
	cmpl	$8, %eax
	setl	%al
	andb	$1, %al
	movzbl	%al, %eax
	orl	%esi, %eax
	andl	%edx, %eax
	orl	%ecx, %eax
	movl	-120(%rbp), %ecx
	movq	-56(%rbp), %rdx
	movl	-40(%rbp), %esi
	addl	$2, %esi
	imull	-44(%rbp), %esi
	addl	-36(%rbp), %esi
	subl	$1, %esi
	movslq	%esi, %rsi
	movzbl	(%rdx,%rsi), %edx
	cmpl	$8, %edx
	setl	%dl
	andb	$1, %dl
	movzbl	%dl, %edx
	movq	-56(%rbp), %rsi
	movl	-40(%rbp), %edi
	addl	$2, %edi
	imull	-44(%rbp), %edi
	addl	-36(%rbp), %edi
	addl	$1, %edi
	movslq	%edi, %rdi
	movzbl	(%rsi,%rdi), %esi
	cmpl	$8, %esi
	setl	%bl
	andb	$1, %bl
	movzbl	%bl, %esi
	orl	%edx, %esi
	andl	%ecx, %esi
	orl	%eax, %esi
	cmpl	$0, %esi
	je	.LBB12_86
# BB#81:                                #   in Loop: Header=BB12_3 Depth=2
	movl	$1704018, %edi          # imm = 0x1A0052
	callq	enqueue_signature
	movq	-56(%rbp), %rax
	movl	-40(%rbp), %ecx
	imull	-44(%rbp), %ecx
	addl	-36(%rbp), %ecx
	movslq	%ecx, %rcx
	movb	$100, (%rax,%rcx)
	movl	-40(%rbp), %eax
	addl	$-1, %eax
	movl	%eax, -40(%rbp)
	movl	-36(%rbp), %eax
	subl	$2, %eax
	movl	%eax, -36(%rbp)
	cmpl	$4, -40(%rbp)
	jge	.LBB12_83
# BB#82:                                #   in Loop: Header=BB12_3 Depth=2
	movl	$1704019, %edi          # imm = 0x1A0053
	callq	enqueue_signature
	movl	$4, -40(%rbp)
.LBB12_83:                              #   in Loop: Header=BB12_3 Depth=2
	movl	$1704020, %edi          # imm = 0x1A0054
	callq	enqueue_signature
	cmpl	$4, -36(%rbp)
	jge	.LBB12_85
# BB#84:                                #   in Loop: Header=BB12_3 Depth=2
	movl	$1704021, %edi          # imm = 0x1A0055
	callq	enqueue_signature
	movl	$4, -36(%rbp)
.LBB12_85:                              #   in Loop: Header=BB12_3 Depth=2
	movl	$1704022, %edi          # imm = 0x1A0056
	callq	enqueue_signature
.LBB12_86:                              #   in Loop: Header=BB12_3 Depth=2
	movl	$1704023, %edi          # imm = 0x1A0057
	callq	enqueue_signature
.LBB12_87:                              #   in Loop: Header=BB12_3 Depth=2
	movl	$1704024, %edi          # imm = 0x1A0058
	callq	enqueue_signature
.LBB12_88:                              #   in Loop: Header=BB12_3 Depth=2
	movl	$1704025, %edi          # imm = 0x1A0059
	callq	enqueue_signature
	cmpl	$2, -160(%rbp)
	jle	.LBB12_98
# BB#89:                                #   in Loop: Header=BB12_3 Depth=2
	movl	$1704026, %edi          # imm = 0x1A005A
	callq	enqueue_signature
	movq	-56(%rbp), %rax
	movl	-40(%rbp), %ecx
	subl	$1, %ecx
	imull	-44(%rbp), %ecx
	addl	-36(%rbp), %ecx
	movslq	%ecx, %rcx
	movzbl	(%rax,%rcx), %eax
	cmpl	$8, %eax
	setl	%al
	andb	$1, %al
	movzbl	%al, %eax
	movl	%eax, -128(%rbp)
	movq	-56(%rbp), %rax
	movl	-40(%rbp), %ecx
	imull	-44(%rbp), %ecx
	addl	-36(%rbp), %ecx
	addl	$1, %ecx
	movslq	%ecx, %rcx
	movzbl	(%rax,%rcx), %eax
	cmpl	$8, %eax
	setl	%al
	andb	$1, %al
	movzbl	%al, %eax
	movl	%eax, -124(%rbp)
	movq	-56(%rbp), %rax
	movl	-40(%rbp), %ecx
	addl	$1, %ecx
	imull	-44(%rbp), %ecx
	addl	-36(%rbp), %ecx
	movslq	%ecx, %rcx
	movzbl	(%rax,%rcx), %eax
	cmpl	$8, %eax
	setl	%al
	andb	$1, %al
	movzbl	%al, %eax
	movl	%eax, -120(%rbp)
	movq	-56(%rbp), %rax
	movl	-40(%rbp), %ecx
	imull	-44(%rbp), %ecx
	addl	-36(%rbp), %ecx
	subl	$1, %ecx
	movslq	%ecx, %rcx
	movzbl	(%rax,%rcx), %eax
	cmpl	$8, %eax
	setl	%al
	andb	$1, %al
	movzbl	%al, %eax
	movl	%eax, -116(%rbp)
	movl	-128(%rbp), %eax
	addl	-124(%rbp), %eax
	addl	-120(%rbp), %eax
	addl	-116(%rbp), %eax
	cmpl	$1, %eax
	jle	.LBB12_97
# BB#90:                                #   in Loop: Header=BB12_3 Depth=2
	movl	$1704027, %edi          # imm = 0x1A005B
	callq	enqueue_signature
	movq	-56(%rbp), %rax
	movl	-40(%rbp), %ecx
	subl	$1, %ecx
	imull	-44(%rbp), %ecx
	addl	-36(%rbp), %ecx
	subl	$1, %ecx
	movslq	%ecx, %rcx
	movzbl	(%rax,%rcx), %eax
	cmpl	$8, %eax
	setl	%al
	andb	$1, %al
	movzbl	%al, %eax
	movl	%eax, -140(%rbp)
	movq	-56(%rbp), %rax
	movl	-40(%rbp), %ecx
	subl	$1, %ecx
	imull	-44(%rbp), %ecx
	addl	-36(%rbp), %ecx
	addl	$1, %ecx
	movslq	%ecx, %rcx
	movzbl	(%rax,%rcx), %eax
	cmpl	$8, %eax
	setl	%al
	andb	$1, %al
	movzbl	%al, %eax
	movl	%eax, -132(%rbp)
	movq	-56(%rbp), %rax
	movl	-40(%rbp), %ecx
	addl	$1, %ecx
	imull	-44(%rbp), %ecx
	addl	-36(%rbp), %ecx
	subl	$1, %ecx
	movslq	%ecx, %rcx
	movzbl	(%rax,%rcx), %eax
	cmpl	$8, %eax
	setl	%al
	andb	$1, %al
	movzbl	%al, %eax
	movl	%eax, -168(%rbp)
	movq	-56(%rbp), %rax
	movl	-40(%rbp), %ecx
	addl	$1, %ecx
	imull	-44(%rbp), %ecx
	addl	-36(%rbp), %ecx
	addl	$1, %ecx
	movslq	%ecx, %rcx
	movzbl	(%rax,%rcx), %eax
	cmpl	$8, %eax
	setl	%al
	andb	$1, %al
	movzbl	%al, %eax
	movl	%eax, -164(%rbp)
	movl	-140(%rbp), %eax
	orl	-128(%rbp), %eax
	movl	%eax, -196(%rbp)
	movl	-132(%rbp), %eax
	orl	-124(%rbp), %eax
	movl	%eax, -192(%rbp)
	movl	-164(%rbp), %eax
	orl	-120(%rbp), %eax
	movl	%eax, -188(%rbp)
	movl	-168(%rbp), %eax
	orl	-116(%rbp), %eax
	movl	%eax, -184(%rbp)
	movl	-196(%rbp), %eax
	addl	-192(%rbp), %eax
	addl	-188(%rbp), %eax
	addl	-184(%rbp), %eax
	movl	-128(%rbp), %ecx
	andl	-192(%rbp), %ecx
	movl	-124(%rbp), %edx
	andl	-188(%rbp), %edx
	addl	%ecx, %edx
	movl	-120(%rbp), %ecx
	andl	-184(%rbp), %ecx
	addl	%edx, %ecx
	movl	-116(%rbp), %edx
	andl	-196(%rbp), %edx
	addl	%ecx, %edx
	subl	%edx, %eax
	cmpl	$2, %eax
	jge	.LBB12_96
# BB#91:                                #   in Loop: Header=BB12_3 Depth=2
	movl	$1704028, %edi          # imm = 0x1A005C
	callq	enqueue_signature
	movq	-56(%rbp), %rax
	movl	-40(%rbp), %ecx
	imull	-44(%rbp), %ecx
	addl	-36(%rbp), %ecx
	movslq	%ecx, %rcx
	movb	$100, (%rax,%rcx)
	movl	-40(%rbp), %eax
	addl	$-1, %eax
	movl	%eax, -40(%rbp)
	movl	-36(%rbp), %eax
	subl	$2, %eax
	movl	%eax, -36(%rbp)
	cmpl	$4, -40(%rbp)
	jge	.LBB12_93
# BB#92:                                #   in Loop: Header=BB12_3 Depth=2
	movl	$1704029, %edi          # imm = 0x1A005D
	callq	enqueue_signature
	movl	$4, -40(%rbp)
.LBB12_93:                              #   in Loop: Header=BB12_3 Depth=2
	movl	$1704030, %edi          # imm = 0x1A005E
	callq	enqueue_signature
	cmpl	$4, -36(%rbp)
	jge	.LBB12_95
# BB#94:                                #   in Loop: Header=BB12_3 Depth=2
	movl	$1704031, %edi          # imm = 0x1A005F
	callq	enqueue_signature
	movl	$4, -36(%rbp)
.LBB12_95:                              #   in Loop: Header=BB12_3 Depth=2
	movl	$1704032, %edi          # imm = 0x1A0060
	callq	enqueue_signature
.LBB12_96:                              #   in Loop: Header=BB12_3 Depth=2
	movl	$1704033, %edi          # imm = 0x1A0061
	callq	enqueue_signature
.LBB12_97:                              #   in Loop: Header=BB12_3 Depth=2
	movl	$1704034, %edi          # imm = 0x1A0062
	callq	enqueue_signature
.LBB12_98:                              #   in Loop: Header=BB12_3 Depth=2
	movl	$1704035, %edi          # imm = 0x1A0063
	callq	enqueue_signature
.LBB12_99:                              #   in Loop: Header=BB12_3 Depth=2
	movl	$1704036, %edi          # imm = 0x1A0064
	callq	enqueue_signature
# BB#100:                               #   in Loop: Header=BB12_3 Depth=2
	movl	$1704037, %edi          # imm = 0x1A0065
	callq	enqueue_signature
	movl	-36(%rbp), %eax
	addl	$1, %eax
	movl	%eax, -36(%rbp)
	jmp	.LBB12_3
.LBB12_101:                             #   in Loop: Header=BB12_1 Depth=1
	movl	$1704038, %edi          # imm = 0x1A0066
	callq	enqueue_signature
# BB#102:                               #   in Loop: Header=BB12_1 Depth=1
	movl	$1704039, %edi          # imm = 0x1A0067
	callq	enqueue_signature
	movl	-40(%rbp), %eax
	addl	$1, %eax
	movl	%eax, -40(%rbp)
	jmp	.LBB12_1
.LBB12_103:
	movl	$1704040, %edi          # imm = 0x1A0068
	callq	enqueue_signature_with_return
	movl	-208(%rbp), %eax
	addq	$192, %rsp
	popq	%rbx
	popq	%r12
	popq	%r14
	popq	%r15
	popq	%rbp
	retq
.Lfunc_end12:
	.size	susan_thin, .Lfunc_end12-susan_thin
	.cfi_endproc
                                        # -- End function
	.section	.rodata.cst8,"aM",@progbits,8
	.p2align	3               # -- Begin function susan_edges
.LCPI13_0:
	.quad	4606281698874543309     # double 0.90000000000000002
.LCPI13_2:
	.quad	4602678819172646912     # double 0.5
.LCPI13_3:
	.quad	4611686018427387904     # double 2
	.section	.rodata.cst4,"aM",@progbits,4
	.p2align	2
.LCPI13_1:
	.long	1232348160              # float 1.0E+6
	.text
	.globl	susan_edges
	.p2align	4, 0x90
	.type	susan_edges,@function
susan_edges:                            # @susan_edges
	.cfi_startproc
# BB#0:
	pushq	%rbp
.Lcfi87:
	.cfi_def_cfa_offset 16
.Lcfi88:
	.cfi_offset %rbp, -16
	movq	%rsp, %rbp
.Lcfi89:
	.cfi_def_cfa_register %rbp
	pushq	%r15
	pushq	%r14
	pushq	%r13
	pushq	%r12
	pushq	%rbx
	subq	$136, %rsp
.Lcfi90:
	.cfi_offset %rbx, -56
.Lcfi91:
	.cfi_offset %r12, -48
.Lcfi92:
	.cfi_offset %r13, -40
.Lcfi93:
	.cfi_offset %r14, -32
.Lcfi94:
	.cfi_offset %r15, -24
	movl	%r9d, -144(%rbp)        # 4-byte Spill
	movl	%r8d, %r15d
	movq	%rcx, %r12
	movq	%rdx, %r13
	movq	%rsi, %rbx
	movq	%rdi, %r14
	movl	16(%rbp), %eax
	movl	$1769473, %edi          # imm = 0x1B0001
	callq	enqueue_signature
	movq	%r14, -136(%rbp)
	movq	%rbx, -120(%rbp)
	movq	%r13, -160(%rbp)
	movq	%r12, -152(%rbp)
	movl	%r15d, -128(%rbp)
	movl	-144(%rbp), %eax        # 4-byte Reload
	movl	%eax, -88(%rbp)
	movq	-120(%rbp), %rdi
	movl	-88(%rbp), %eax
	imull	16(%rbp), %eax
	movslq	%eax, %rdx
	shlq	$2, %rdx
	xorl	%esi, %esi
	callq	memset
# BB#1:
	movl	$1769474, %edi          # imm = 0x1B0002
	callq	enqueue_signature
	movl	$3, -96(%rbp)
.LBB13_2:                               # =>This Loop Header: Depth=1
                                        #     Child Loop BB13_4 Depth 2
	movl	$1769475, %edi          # imm = 0x1B0003
	callq	enqueue_signature
	movl	-96(%rbp), %eax
	movl	16(%rbp), %ecx
	subl	$3, %ecx
	cmpl	%ecx, %eax
	jge	.LBB13_11
# BB#3:                                 #   in Loop: Header=BB13_2 Depth=1
	movl	$1769476, %edi          # imm = 0x1B0004
	callq	enqueue_signature
	movl	$3, -92(%rbp)
.LBB13_4:                               #   Parent Loop BB13_2 Depth=1
                                        # =>  This Inner Loop Header: Depth=2
	movl	$1769477, %edi          # imm = 0x1B0005
	callq	enqueue_signature
	movl	-92(%rbp), %eax
	movl	-88(%rbp), %ecx
	subl	$3, %ecx
	cmpl	%ecx, %eax
	jge	.LBB13_9
# BB#5:                                 #   in Loop: Header=BB13_4 Depth=2
	movl	$1769478, %edi          # imm = 0x1B0006
	callq	enqueue_signature
	xorl	%eax, %eax
	movl	$100, -68(%rbp)
	movq	-136(%rbp), %rcx
	movl	-96(%rbp), %edx
	subl	$3, %edx
	imull	-88(%rbp), %edx
	movslq	%edx, %rdx
	addq	%rcx, %rdx
	movslq	-92(%rbp), %rcx
	addq	%rdx, %rcx
	addq	$-1, %rcx
	movq	%rcx, -64(%rbp)
	movq	-152(%rbp), %rcx
	movq	-136(%rbp), %rdx
	movl	-96(%rbp), %esi
	imull	-88(%rbp), %esi
	addl	-92(%rbp), %esi
	movslq	%esi, %rsi
	movzbl	(%rdx,%rsi), %edx
	movslq	%edx, %rdx
	addq	%rcx, %rdx
	movq	%rdx, -80(%rbp)
	movq	-80(%rbp), %rcx
	movq	-64(%rbp), %rdx
	leaq	1(%rdx), %rsi
	movq	%rsi, -64(%rbp)
	movzbl	(%rdx), %edx
	movslq	%edx, %rdx
	xorl	%esi, %esi
	subq	%rdx, %rsi
	movzbl	(%rcx,%rsi), %ecx
	addl	-68(%rbp), %ecx
	movl	%ecx, -68(%rbp)
	movq	-80(%rbp), %rcx
	movq	-64(%rbp), %rdx
	leaq	1(%rdx), %rsi
	movq	%rsi, -64(%rbp)
	movzbl	(%rdx), %edx
	movslq	%edx, %rdx
	xorl	%esi, %esi
	subq	%rdx, %rsi
	movzbl	(%rcx,%rsi), %ecx
	addl	-68(%rbp), %ecx
	movl	%ecx, -68(%rbp)
	movq	-80(%rbp), %rcx
	movq	-64(%rbp), %rdx
	movzbl	(%rdx), %edx
	movslq	%edx, %rdx
	xorl	%esi, %esi
	subq	%rdx, %rsi
	movzbl	(%rcx,%rsi), %ecx
	addl	-68(%rbp), %ecx
	movl	%ecx, -68(%rbp)
	movl	-88(%rbp), %ecx
	subl	$3, %ecx
	movq	-64(%rbp), %rdx
	movslq	%ecx, %rcx
	addq	%rdx, %rcx
	movq	%rcx, -64(%rbp)
	movq	-80(%rbp), %rcx
	movq	-64(%rbp), %rdx
	leaq	1(%rdx), %rsi
	movq	%rsi, -64(%rbp)
	movzbl	(%rdx), %edx
	movslq	%edx, %rdx
	xorl	%esi, %esi
	subq	%rdx, %rsi
	movzbl	(%rcx,%rsi), %ecx
	addl	-68(%rbp), %ecx
	movl	%ecx, -68(%rbp)
	movq	-80(%rbp), %rcx
	movq	-64(%rbp), %rdx
	leaq	1(%rdx), %rsi
	movq	%rsi, -64(%rbp)
	movzbl	(%rdx), %edx
	movslq	%edx, %rdx
	xorl	%esi, %esi
	subq	%rdx, %rsi
	movzbl	(%rcx,%rsi), %ecx
	addl	-68(%rbp), %ecx
	movl	%ecx, -68(%rbp)
	movq	-80(%rbp), %rcx
	movq	-64(%rbp), %rdx
	leaq	1(%rdx), %rsi
	movq	%rsi, -64(%rbp)
	movzbl	(%rdx), %edx
	movslq	%edx, %rdx
	xorl	%esi, %esi
	subq	%rdx, %rsi
	movzbl	(%rcx,%rsi), %ecx
	addl	-68(%rbp), %ecx
	movl	%ecx, -68(%rbp)
	movq	-80(%rbp), %rcx
	movq	-64(%rbp), %rdx
	leaq	1(%rdx), %rsi
	movq	%rsi, -64(%rbp)
	movzbl	(%rdx), %edx
	movslq	%edx, %rdx
	xorl	%esi, %esi
	subq	%rdx, %rsi
	movzbl	(%rcx,%rsi), %ecx
	addl	-68(%rbp), %ecx
	movl	%ecx, -68(%rbp)
	movq	-80(%rbp), %rcx
	movq	-64(%rbp), %rdx
	movzbl	(%rdx), %edx
	movslq	%edx, %rdx
	xorl	%esi, %esi
	subq	%rdx, %rsi
	movzbl	(%rcx,%rsi), %ecx
	addl	-68(%rbp), %ecx
	movl	%ecx, -68(%rbp)
	movl	-88(%rbp), %ecx
	subl	$5, %ecx
	movq	-64(%rbp), %rdx
	movslq	%ecx, %rcx
	addq	%rdx, %rcx
	movq	%rcx, -64(%rbp)
	movq	-80(%rbp), %rcx
	movq	-64(%rbp), %rdx
	leaq	1(%rdx), %rsi
	movq	%rsi, -64(%rbp)
	movzbl	(%rdx), %edx
	movslq	%edx, %rdx
	xorl	%esi, %esi
	subq	%rdx, %rsi
	movzbl	(%rcx,%rsi), %ecx
	addl	-68(%rbp), %ecx
	movl	%ecx, -68(%rbp)
	movq	-80(%rbp), %rcx
	movq	-64(%rbp), %rdx
	leaq	1(%rdx), %rsi
	movq	%rsi, -64(%rbp)
	movzbl	(%rdx), %edx
	movslq	%edx, %rdx
	xorl	%esi, %esi
	subq	%rdx, %rsi
	movzbl	(%rcx,%rsi), %ecx
	addl	-68(%rbp), %ecx
	movl	%ecx, -68(%rbp)
	movq	-80(%rbp), %rcx
	movq	-64(%rbp), %rdx
	leaq	1(%rdx), %rsi
	movq	%rsi, -64(%rbp)
	movzbl	(%rdx), %edx
	movslq	%edx, %rdx
	xorl	%esi, %esi
	subq	%rdx, %rsi
	movzbl	(%rcx,%rsi), %ecx
	addl	-68(%rbp), %ecx
	movl	%ecx, -68(%rbp)
	movq	-80(%rbp), %rcx
	movq	-64(%rbp), %rdx
	leaq	1(%rdx), %rsi
	movq	%rsi, -64(%rbp)
	movzbl	(%rdx), %edx
	movslq	%edx, %rdx
	xorl	%esi, %esi
	subq	%rdx, %rsi
	movzbl	(%rcx,%rsi), %ecx
	addl	-68(%rbp), %ecx
	movl	%ecx, -68(%rbp)
	movq	-80(%rbp), %rcx
	movq	-64(%rbp), %rdx
	leaq	1(%rdx), %rsi
	movq	%rsi, -64(%rbp)
	movzbl	(%rdx), %edx
	movslq	%edx, %rdx
	xorl	%esi, %esi
	subq	%rdx, %rsi
	movzbl	(%rcx,%rsi), %ecx
	addl	-68(%rbp), %ecx
	movl	%ecx, -68(%rbp)
	movq	-80(%rbp), %rcx
	movq	-64(%rbp), %rdx
	leaq	1(%rdx), %rsi
	movq	%rsi, -64(%rbp)
	movzbl	(%rdx), %edx
	movslq	%edx, %rdx
	xorl	%esi, %esi
	subq	%rdx, %rsi
	movzbl	(%rcx,%rsi), %ecx
	addl	-68(%rbp), %ecx
	movl	%ecx, -68(%rbp)
	movq	-80(%rbp), %rcx
	movq	-64(%rbp), %rdx
	movzbl	(%rdx), %edx
	movslq	%edx, %rdx
	xorl	%esi, %esi
	subq	%rdx, %rsi
	movzbl	(%rcx,%rsi), %ecx
	addl	-68(%rbp), %ecx
	movl	%ecx, -68(%rbp)
	movl	-88(%rbp), %ecx
	subl	$6, %ecx
	movq	-64(%rbp), %rdx
	movslq	%ecx, %rcx
	addq	%rdx, %rcx
	movq	%rcx, -64(%rbp)
	movq	-80(%rbp), %rcx
	movq	-64(%rbp), %rdx
	leaq	1(%rdx), %rsi
	movq	%rsi, -64(%rbp)
	movzbl	(%rdx), %edx
	movslq	%edx, %rdx
	xorl	%esi, %esi
	subq	%rdx, %rsi
	movzbl	(%rcx,%rsi), %ecx
	addl	-68(%rbp), %ecx
	movl	%ecx, -68(%rbp)
	movq	-80(%rbp), %rcx
	movq	-64(%rbp), %rdx
	leaq	1(%rdx), %rsi
	movq	%rsi, -64(%rbp)
	movzbl	(%rdx), %edx
	movslq	%edx, %rdx
	xorl	%esi, %esi
	subq	%rdx, %rsi
	movzbl	(%rcx,%rsi), %ecx
	addl	-68(%rbp), %ecx
	movl	%ecx, -68(%rbp)
	movq	-80(%rbp), %rcx
	movq	-64(%rbp), %rdx
	movzbl	(%rdx), %edx
	movslq	%edx, %rdx
	xorl	%esi, %esi
	subq	%rdx, %rsi
	movzbl	(%rcx,%rsi), %ecx
	addl	-68(%rbp), %ecx
	movl	%ecx, -68(%rbp)
	movq	-64(%rbp), %rcx
	addq	$2, %rcx
	movq	%rcx, -64(%rbp)
	movq	-80(%rbp), %rcx
	movq	-64(%rbp), %rdx
	leaq	1(%rdx), %rsi
	movq	%rsi, -64(%rbp)
	movzbl	(%rdx), %edx
	movslq	%edx, %rdx
	xorl	%esi, %esi
	subq	%rdx, %rsi
	movzbl	(%rcx,%rsi), %ecx
	addl	-68(%rbp), %ecx
	movl	%ecx, -68(%rbp)
	movq	-80(%rbp), %rcx
	movq	-64(%rbp), %rdx
	leaq	1(%rdx), %rsi
	movq	%rsi, -64(%rbp)
	movzbl	(%rdx), %edx
	movslq	%edx, %rdx
	xorl	%esi, %esi
	subq	%rdx, %rsi
	movzbl	(%rcx,%rsi), %ecx
	addl	-68(%rbp), %ecx
	movl	%ecx, -68(%rbp)
	movq	-80(%rbp), %rcx
	movq	-64(%rbp), %rdx
	movzbl	(%rdx), %edx
	movslq	%edx, %rdx
	xorl	%esi, %esi
	subq	%rdx, %rsi
	movzbl	(%rcx,%rsi), %ecx
	addl	-68(%rbp), %ecx
	movl	%ecx, -68(%rbp)
	movl	-88(%rbp), %ecx
	subl	$6, %ecx
	movq	-64(%rbp), %rdx
	movslq	%ecx, %rcx
	addq	%rdx, %rcx
	movq	%rcx, -64(%rbp)
	movq	-80(%rbp), %rcx
	movq	-64(%rbp), %rdx
	leaq	1(%rdx), %rsi
	movq	%rsi, -64(%rbp)
	movzbl	(%rdx), %edx
	movslq	%edx, %rdx
	xorl	%esi, %esi
	subq	%rdx, %rsi
	movzbl	(%rcx,%rsi), %ecx
	addl	-68(%rbp), %ecx
	movl	%ecx, -68(%rbp)
	movq	-80(%rbp), %rcx
	movq	-64(%rbp), %rdx
	leaq	1(%rdx), %rsi
	movq	%rsi, -64(%rbp)
	movzbl	(%rdx), %edx
	movslq	%edx, %rdx
	xorl	%esi, %esi
	subq	%rdx, %rsi
	movzbl	(%rcx,%rsi), %ecx
	addl	-68(%rbp), %ecx
	movl	%ecx, -68(%rbp)
	movq	-80(%rbp), %rcx
	movq	-64(%rbp), %rdx
	leaq	1(%rdx), %rsi
	movq	%rsi, -64(%rbp)
	movzbl	(%rdx), %edx
	movslq	%edx, %rdx
	xorl	%esi, %esi
	subq	%rdx, %rsi
	movzbl	(%rcx,%rsi), %ecx
	addl	-68(%rbp), %ecx
	movl	%ecx, -68(%rbp)
	movq	-80(%rbp), %rcx
	movq	-64(%rbp), %rdx
	leaq	1(%rdx), %rsi
	movq	%rsi, -64(%rbp)
	movzbl	(%rdx), %edx
	movslq	%edx, %rdx
	xorl	%esi, %esi
	subq	%rdx, %rsi
	movzbl	(%rcx,%rsi), %ecx
	addl	-68(%rbp), %ecx
	movl	%ecx, -68(%rbp)
	movq	-80(%rbp), %rcx
	movq	-64(%rbp), %rdx
	leaq	1(%rdx), %rsi
	movq	%rsi, -64(%rbp)
	movzbl	(%rdx), %edx
	movslq	%edx, %rdx
	xorl	%esi, %esi
	subq	%rdx, %rsi
	movzbl	(%rcx,%rsi), %ecx
	addl	-68(%rbp), %ecx
	movl	%ecx, -68(%rbp)
	movq	-80(%rbp), %rcx
	movq	-64(%rbp), %rdx
	leaq	1(%rdx), %rsi
	movq	%rsi, -64(%rbp)
	movzbl	(%rdx), %edx
	movslq	%edx, %rdx
	xorl	%esi, %esi
	subq	%rdx, %rsi
	movzbl	(%rcx,%rsi), %ecx
	addl	-68(%rbp), %ecx
	movl	%ecx, -68(%rbp)
	movq	-80(%rbp), %rcx
	movq	-64(%rbp), %rdx
	movzbl	(%rdx), %edx
	movslq	%edx, %rdx
	xorl	%esi, %esi
	subq	%rdx, %rsi
	movzbl	(%rcx,%rsi), %ecx
	addl	-68(%rbp), %ecx
	movl	%ecx, -68(%rbp)
	movl	-88(%rbp), %ecx
	subl	$5, %ecx
	movq	-64(%rbp), %rdx
	movslq	%ecx, %rcx
	addq	%rdx, %rcx
	movq	%rcx, -64(%rbp)
	movq	-80(%rbp), %rcx
	movq	-64(%rbp), %rdx
	leaq	1(%rdx), %rsi
	movq	%rsi, -64(%rbp)
	movzbl	(%rdx), %edx
	movslq	%edx, %rdx
	xorl	%esi, %esi
	subq	%rdx, %rsi
	movzbl	(%rcx,%rsi), %ecx
	addl	-68(%rbp), %ecx
	movl	%ecx, -68(%rbp)
	movq	-80(%rbp), %rcx
	movq	-64(%rbp), %rdx
	leaq	1(%rdx), %rsi
	movq	%rsi, -64(%rbp)
	movzbl	(%rdx), %edx
	movslq	%edx, %rdx
	xorl	%esi, %esi
	subq	%rdx, %rsi
	movzbl	(%rcx,%rsi), %ecx
	addl	-68(%rbp), %ecx
	movl	%ecx, -68(%rbp)
	movq	-80(%rbp), %rcx
	movq	-64(%rbp), %rdx
	leaq	1(%rdx), %rsi
	movq	%rsi, -64(%rbp)
	movzbl	(%rdx), %edx
	movslq	%edx, %rdx
	xorl	%esi, %esi
	subq	%rdx, %rsi
	movzbl	(%rcx,%rsi), %ecx
	addl	-68(%rbp), %ecx
	movl	%ecx, -68(%rbp)
	movq	-80(%rbp), %rcx
	movq	-64(%rbp), %rdx
	leaq	1(%rdx), %rsi
	movq	%rsi, -64(%rbp)
	movzbl	(%rdx), %edx
	movslq	%edx, %rdx
	xorl	%esi, %esi
	subq	%rdx, %rsi
	movzbl	(%rcx,%rsi), %ecx
	addl	-68(%rbp), %ecx
	movl	%ecx, -68(%rbp)
	movq	-80(%rbp), %rcx
	movq	-64(%rbp), %rdx
	movzbl	(%rdx), %edx
	movslq	%edx, %rdx
	xorl	%esi, %esi
	subq	%rdx, %rsi
	movzbl	(%rcx,%rsi), %ecx
	addl	-68(%rbp), %ecx
	movl	%ecx, -68(%rbp)
	movl	-88(%rbp), %ecx
	subl	$3, %ecx
	movq	-64(%rbp), %rdx
	movslq	%ecx, %rcx
	addq	%rdx, %rcx
	movq	%rcx, -64(%rbp)
	movq	-80(%rbp), %rcx
	movq	-64(%rbp), %rdx
	leaq	1(%rdx), %rsi
	movq	%rsi, -64(%rbp)
	movzbl	(%rdx), %edx
	movslq	%edx, %rdx
	xorl	%esi, %esi
	subq	%rdx, %rsi
	movzbl	(%rcx,%rsi), %ecx
	addl	-68(%rbp), %ecx
	movl	%ecx, -68(%rbp)
	movq	-80(%rbp), %rcx
	movq	-64(%rbp), %rdx
	leaq	1(%rdx), %rsi
	movq	%rsi, -64(%rbp)
	movzbl	(%rdx), %edx
	movslq	%edx, %rdx
	xorl	%esi, %esi
	subq	%rdx, %rsi
	movzbl	(%rcx,%rsi), %ecx
	addl	-68(%rbp), %ecx
	movl	%ecx, -68(%rbp)
	movq	-80(%rbp), %rcx
	movq	-64(%rbp), %rdx
	movzbl	(%rdx), %edx
	movslq	%edx, %rdx
	subq	%rdx, %rax
	movzbl	(%rcx,%rax), %eax
	addl	-68(%rbp), %eax
	movl	%eax, -68(%rbp)
	movl	-68(%rbp), %eax
	cmpl	-128(%rbp), %eax
	jg	.LBB13_7
# BB#6:                                 #   in Loop: Header=BB13_4 Depth=2
	movl	$1769479, %edi          # imm = 0x1B0007
	callq	enqueue_signature
	movl	-128(%rbp), %eax
	subl	-68(%rbp), %eax
	movq	-120(%rbp), %rcx
	movl	-96(%rbp), %edx
	imull	-88(%rbp), %edx
	addl	-92(%rbp), %edx
	movslq	%edx, %rdx
	movl	%eax, (%rcx,%rdx,4)
.LBB13_7:                               #   in Loop: Header=BB13_4 Depth=2
	movl	$1769480, %edi          # imm = 0x1B0008
	callq	enqueue_signature
# BB#8:                                 #   in Loop: Header=BB13_4 Depth=2
	movl	$1769481, %edi          # imm = 0x1B0009
	callq	enqueue_signature
	movl	-92(%rbp), %eax
	addl	$1, %eax
	movl	%eax, -92(%rbp)
	jmp	.LBB13_4
.LBB13_9:                               #   in Loop: Header=BB13_2 Depth=1
	movl	$1769482, %edi          # imm = 0x1B000A
	callq	enqueue_signature
# BB#10:                                #   in Loop: Header=BB13_2 Depth=1
	movl	$1769483, %edi          # imm = 0x1B000B
	callq	enqueue_signature
	movl	-96(%rbp), %eax
	addl	$1, %eax
	movl	%eax, -96(%rbp)
	jmp	.LBB13_2
.LBB13_11:
	movl	$1769484, %edi          # imm = 0x1B000C
	callq	enqueue_signature
	movl	$4, -96(%rbp)
.LBB13_12:                              # =>This Loop Header: Depth=1
                                        #     Child Loop BB13_14 Depth 2
	movl	$1769485, %edi          # imm = 0x1B000D
	callq	enqueue_signature
	movl	-96(%rbp), %eax
	movl	16(%rbp), %ecx
	subl	$4, %ecx
	cmpl	%ecx, %eax
	jge	.LBB13_67
# BB#13:                                #   in Loop: Header=BB13_12 Depth=1
	movl	$1769486, %edi          # imm = 0x1B000E
	callq	enqueue_signature
	movl	$4, -92(%rbp)
.LBB13_14:                              #   Parent Loop BB13_12 Depth=1
                                        # =>  This Inner Loop Header: Depth=2
	movl	$1769487, %edi          # imm = 0x1B000F
	callq	enqueue_signature
	movl	-92(%rbp), %eax
	movl	-88(%rbp), %ecx
	subl	$4, %ecx
	cmpl	%ecx, %eax
	jge	.LBB13_65
# BB#15:                                #   in Loop: Header=BB13_14 Depth=2
	movl	$1769488, %edi          # imm = 0x1B0010
	callq	enqueue_signature
	movq	-120(%rbp), %rax
	movl	-96(%rbp), %ecx
	imull	-88(%rbp), %ecx
	addl	-92(%rbp), %ecx
	movslq	%ecx, %rcx
	cmpl	$0, (%rax,%rcx,4)
	jle	.LBB13_63
# BB#16:                                #   in Loop: Header=BB13_14 Depth=2
	movl	$1769489, %edi          # imm = 0x1B0011
	callq	enqueue_signature
	movq	-120(%rbp), %rax
	movl	-96(%rbp), %ecx
	imull	-88(%rbp), %ecx
	addl	-92(%rbp), %ecx
	movslq	%ecx, %rcx
	movl	(%rax,%rcx,4), %eax
	movl	%eax, -112(%rbp)
	movl	-128(%rbp), %eax
	subl	-112(%rbp), %eax
	movl	%eax, -68(%rbp)
	movq	-152(%rbp), %rax
	movq	-136(%rbp), %rcx
	movl	-96(%rbp), %edx
	imull	-88(%rbp), %edx
	addl	-92(%rbp), %edx
	movslq	%edx, %rdx
	movzbl	(%rcx,%rdx), %ecx
	movslq	%ecx, %rcx
	addq	%rax, %rcx
	movq	%rcx, -80(%rbp)
	cmpl	$600, -68(%rbp)         # imm = 0x258
	jle	.LBB13_42
# BB#17:                                #   in Loop: Header=BB13_14 Depth=2
	movl	$1769490, %edi          # imm = 0x1B0012
	callq	enqueue_signature
	xorl	%eax, %eax
	movq	-136(%rbp), %rcx
	movl	-96(%rbp), %edx
	subl	$3, %edx
	imull	-88(%rbp), %edx
	movslq	%edx, %rdx
	addq	%rcx, %rdx
	movslq	-92(%rbp), %rcx
	addq	%rdx, %rcx
	addq	$-1, %rcx
	movq	%rcx, -64(%rbp)
	movl	$0, -52(%rbp)
	movl	$0, -48(%rbp)
	movq	-80(%rbp), %rcx
	movq	-64(%rbp), %rdx
	leaq	1(%rdx), %rsi
	movq	%rsi, -64(%rbp)
	movzbl	(%rdx), %edx
	movslq	%edx, %rdx
	xorl	%esi, %esi
	subq	%rdx, %rsi
	movb	(%rcx,%rsi), %cl
	movb	%cl, -41(%rbp)
	movzbl	-41(%rbp), %ecx
	movl	-52(%rbp), %edx
	subl	%ecx, %edx
	movl	%edx, -52(%rbp)
	movzbl	-41(%rbp), %ecx
	imull	$3, %ecx, %ecx
	movl	-48(%rbp), %edx
	subl	%ecx, %edx
	movl	%edx, -48(%rbp)
	movq	-80(%rbp), %rcx
	movq	-64(%rbp), %rdx
	leaq	1(%rdx), %rsi
	movq	%rsi, -64(%rbp)
	movzbl	(%rdx), %edx
	movslq	%edx, %rdx
	xorl	%esi, %esi
	subq	%rdx, %rsi
	movb	(%rcx,%rsi), %cl
	movb	%cl, -41(%rbp)
	movzbl	-41(%rbp), %ecx
	imull	$3, %ecx, %ecx
	movl	-48(%rbp), %edx
	subl	%ecx, %edx
	movl	%edx, -48(%rbp)
	movq	-80(%rbp), %rcx
	movq	-64(%rbp), %rdx
	movzbl	(%rdx), %edx
	movslq	%edx, %rdx
	xorl	%esi, %esi
	subq	%rdx, %rsi
	movb	(%rcx,%rsi), %cl
	movb	%cl, -41(%rbp)
	movzbl	-41(%rbp), %ecx
	addl	-52(%rbp), %ecx
	movl	%ecx, -52(%rbp)
	movzbl	-41(%rbp), %ecx
	imull	$3, %ecx, %ecx
	movl	-48(%rbp), %edx
	subl	%ecx, %edx
	movl	%edx, -48(%rbp)
	movl	-88(%rbp), %ecx
	subl	$3, %ecx
	movq	-64(%rbp), %rdx
	movslq	%ecx, %rcx
	addq	%rdx, %rcx
	movq	%rcx, -64(%rbp)
	movq	-80(%rbp), %rcx
	movq	-64(%rbp), %rdx
	leaq	1(%rdx), %rsi
	movq	%rsi, -64(%rbp)
	movzbl	(%rdx), %edx
	movslq	%edx, %rdx
	xorl	%esi, %esi
	subq	%rdx, %rsi
	movb	(%rcx,%rsi), %cl
	movb	%cl, -41(%rbp)
	movzbl	-41(%rbp), %ecx
	shll	$1, %ecx
	movl	-52(%rbp), %edx
	subl	%ecx, %edx
	movl	%edx, -52(%rbp)
	movzbl	-41(%rbp), %ecx
	shll	$1, %ecx
	movl	-48(%rbp), %edx
	subl	%ecx, %edx
	movl	%edx, -48(%rbp)
	movq	-80(%rbp), %rcx
	movq	-64(%rbp), %rdx
	leaq	1(%rdx), %rsi
	movq	%rsi, -64(%rbp)
	movzbl	(%rdx), %edx
	movslq	%edx, %rdx
	xorl	%esi, %esi
	subq	%rdx, %rsi
	movb	(%rcx,%rsi), %cl
	movb	%cl, -41(%rbp)
	movzbl	-41(%rbp), %ecx
	movl	-52(%rbp), %edx
	subl	%ecx, %edx
	movl	%edx, -52(%rbp)
	movzbl	-41(%rbp), %ecx
	shll	$1, %ecx
	movl	-48(%rbp), %edx
	subl	%ecx, %edx
	movl	%edx, -48(%rbp)
	movq	-80(%rbp), %rcx
	movq	-64(%rbp), %rdx
	leaq	1(%rdx), %rsi
	movq	%rsi, -64(%rbp)
	movzbl	(%rdx), %edx
	movslq	%edx, %rdx
	xorl	%esi, %esi
	subq	%rdx, %rsi
	movb	(%rcx,%rsi), %cl
	movb	%cl, -41(%rbp)
	movzbl	-41(%rbp), %ecx
	shll	$1, %ecx
	movl	-48(%rbp), %edx
	subl	%ecx, %edx
	movl	%edx, -48(%rbp)
	movq	-80(%rbp), %rcx
	movq	-64(%rbp), %rdx
	leaq	1(%rdx), %rsi
	movq	%rsi, -64(%rbp)
	movzbl	(%rdx), %edx
	movslq	%edx, %rdx
	xorl	%esi, %esi
	subq	%rdx, %rsi
	movb	(%rcx,%rsi), %cl
	movb	%cl, -41(%rbp)
	movzbl	-41(%rbp), %ecx
	addl	-52(%rbp), %ecx
	movl	%ecx, -52(%rbp)
	movzbl	-41(%rbp), %ecx
	shll	$1, %ecx
	movl	-48(%rbp), %edx
	subl	%ecx, %edx
	movl	%edx, -48(%rbp)
	movq	-80(%rbp), %rcx
	movq	-64(%rbp), %rdx
	movzbl	(%rdx), %edx
	movslq	%edx, %rdx
	xorl	%esi, %esi
	subq	%rdx, %rsi
	movb	(%rcx,%rsi), %cl
	movb	%cl, -41(%rbp)
	movzbl	-41(%rbp), %ecx
	shll	$1, %ecx
	addl	-52(%rbp), %ecx
	movl	%ecx, -52(%rbp)
	movzbl	-41(%rbp), %ecx
	shll	$1, %ecx
	movl	-48(%rbp), %edx
	subl	%ecx, %edx
	movl	%edx, -48(%rbp)
	movl	-88(%rbp), %ecx
	subl	$5, %ecx
	movq	-64(%rbp), %rdx
	movslq	%ecx, %rcx
	addq	%rdx, %rcx
	movq	%rcx, -64(%rbp)
	movq	-80(%rbp), %rcx
	movq	-64(%rbp), %rdx
	leaq	1(%rdx), %rsi
	movq	%rsi, -64(%rbp)
	movzbl	(%rdx), %edx
	movslq	%edx, %rdx
	xorl	%esi, %esi
	subq	%rdx, %rsi
	movb	(%rcx,%rsi), %cl
	movb	%cl, -41(%rbp)
	movzbl	-41(%rbp), %ecx
	imull	$3, %ecx, %ecx
	movl	-52(%rbp), %edx
	subl	%ecx, %edx
	movl	%edx, -52(%rbp)
	movzbl	-41(%rbp), %ecx
	movl	-48(%rbp), %edx
	subl	%ecx, %edx
	movl	%edx, -48(%rbp)
	movq	-80(%rbp), %rcx
	movq	-64(%rbp), %rdx
	leaq	1(%rdx), %rsi
	movq	%rsi, -64(%rbp)
	movzbl	(%rdx), %edx
	movslq	%edx, %rdx
	xorl	%esi, %esi
	subq	%rdx, %rsi
	movb	(%rcx,%rsi), %cl
	movb	%cl, -41(%rbp)
	movzbl	-41(%rbp), %ecx
	shll	$1, %ecx
	movl	-52(%rbp), %edx
	subl	%ecx, %edx
	movl	%edx, -52(%rbp)
	movzbl	-41(%rbp), %ecx
	movl	-48(%rbp), %edx
	subl	%ecx, %edx
	movl	%edx, -48(%rbp)
	movq	-80(%rbp), %rcx
	movq	-64(%rbp), %rdx
	leaq	1(%rdx), %rsi
	movq	%rsi, -64(%rbp)
	movzbl	(%rdx), %edx
	movslq	%edx, %rdx
	xorl	%esi, %esi
	subq	%rdx, %rsi
	movb	(%rcx,%rsi), %cl
	movb	%cl, -41(%rbp)
	movzbl	-41(%rbp), %ecx
	movl	-52(%rbp), %edx
	subl	%ecx, %edx
	movl	%edx, -52(%rbp)
	movzbl	-41(%rbp), %ecx
	movl	-48(%rbp), %edx
	subl	%ecx, %edx
	movl	%edx, -48(%rbp)
	movq	-80(%rbp), %rcx
	movq	-64(%rbp), %rdx
	leaq	1(%rdx), %rsi
	movq	%rsi, -64(%rbp)
	movzbl	(%rdx), %edx
	movslq	%edx, %rdx
	xorl	%esi, %esi
	subq	%rdx, %rsi
	movb	(%rcx,%rsi), %cl
	movb	%cl, -41(%rbp)
	movzbl	-41(%rbp), %ecx
	movl	-48(%rbp), %edx
	subl	%ecx, %edx
	movl	%edx, -48(%rbp)
	movq	-80(%rbp), %rcx
	movq	-64(%rbp), %rdx
	leaq	1(%rdx), %rsi
	movq	%rsi, -64(%rbp)
	movzbl	(%rdx), %edx
	movslq	%edx, %rdx
	xorl	%esi, %esi
	subq	%rdx, %rsi
	movb	(%rcx,%rsi), %cl
	movb	%cl, -41(%rbp)
	movzbl	-41(%rbp), %ecx
	addl	-52(%rbp), %ecx
	movl	%ecx, -52(%rbp)
	movzbl	-41(%rbp), %ecx
	movl	-48(%rbp), %edx
	subl	%ecx, %edx
	movl	%edx, -48(%rbp)
	movq	-80(%rbp), %rcx
	movq	-64(%rbp), %rdx
	leaq	1(%rdx), %rsi
	movq	%rsi, -64(%rbp)
	movzbl	(%rdx), %edx
	movslq	%edx, %rdx
	xorl	%esi, %esi
	subq	%rdx, %rsi
	movb	(%rcx,%rsi), %cl
	movb	%cl, -41(%rbp)
	movzbl	-41(%rbp), %ecx
	shll	$1, %ecx
	addl	-52(%rbp), %ecx
	movl	%ecx, -52(%rbp)
	movzbl	-41(%rbp), %ecx
	movl	-48(%rbp), %edx
	subl	%ecx, %edx
	movl	%edx, -48(%rbp)
	movq	-80(%rbp), %rcx
	movq	-64(%rbp), %rdx
	movzbl	(%rdx), %edx
	movslq	%edx, %rdx
	xorl	%esi, %esi
	subq	%rdx, %rsi
	movb	(%rcx,%rsi), %cl
	movb	%cl, -41(%rbp)
	movzbl	-41(%rbp), %ecx
	imull	$3, %ecx, %ecx
	addl	-52(%rbp), %ecx
	movl	%ecx, -52(%rbp)
	movzbl	-41(%rbp), %ecx
	movl	-48(%rbp), %edx
	subl	%ecx, %edx
	movl	%edx, -48(%rbp)
	movl	-88(%rbp), %ecx
	subl	$6, %ecx
	movq	-64(%rbp), %rdx
	movslq	%ecx, %rcx
	addq	%rdx, %rcx
	movq	%rcx, -64(%rbp)
	movq	-80(%rbp), %rcx
	movq	-64(%rbp), %rdx
	leaq	1(%rdx), %rsi
	movq	%rsi, -64(%rbp)
	movzbl	(%rdx), %edx
	movslq	%edx, %rdx
	xorl	%esi, %esi
	subq	%rdx, %rsi
	movb	(%rcx,%rsi), %cl
	movb	%cl, -41(%rbp)
	movzbl	-41(%rbp), %ecx
	imull	$3, %ecx, %ecx
	movl	-52(%rbp), %edx
	subl	%ecx, %edx
	movl	%edx, -52(%rbp)
	movq	-80(%rbp), %rcx
	movq	-64(%rbp), %rdx
	leaq	1(%rdx), %rsi
	movq	%rsi, -64(%rbp)
	movzbl	(%rdx), %edx
	movslq	%edx, %rdx
	xorl	%esi, %esi
	subq	%rdx, %rsi
	movb	(%rcx,%rsi), %cl
	movb	%cl, -41(%rbp)
	movzbl	-41(%rbp), %ecx
	shll	$1, %ecx
	movl	-52(%rbp), %edx
	subl	%ecx, %edx
	movl	%edx, -52(%rbp)
	movq	-80(%rbp), %rcx
	movq	-64(%rbp), %rdx
	movzbl	(%rdx), %edx
	movslq	%edx, %rdx
	xorl	%esi, %esi
	subq	%rdx, %rsi
	movb	(%rcx,%rsi), %cl
	movb	%cl, -41(%rbp)
	movzbl	-41(%rbp), %ecx
	movl	-52(%rbp), %edx
	subl	%ecx, %edx
	movl	%edx, -52(%rbp)
	movq	-64(%rbp), %rcx
	addq	$2, %rcx
	movq	%rcx, -64(%rbp)
	movq	-80(%rbp), %rcx
	movq	-64(%rbp), %rdx
	leaq	1(%rdx), %rsi
	movq	%rsi, -64(%rbp)
	movzbl	(%rdx), %edx
	movslq	%edx, %rdx
	xorl	%esi, %esi
	subq	%rdx, %rsi
	movb	(%rcx,%rsi), %cl
	movb	%cl, -41(%rbp)
	movzbl	-41(%rbp), %ecx
	addl	-52(%rbp), %ecx
	movl	%ecx, -52(%rbp)
	movq	-80(%rbp), %rcx
	movq	-64(%rbp), %rdx
	leaq	1(%rdx), %rsi
	movq	%rsi, -64(%rbp)
	movzbl	(%rdx), %edx
	movslq	%edx, %rdx
	xorl	%esi, %esi
	subq	%rdx, %rsi
	movb	(%rcx,%rsi), %cl
	movb	%cl, -41(%rbp)
	movzbl	-41(%rbp), %ecx
	shll	$1, %ecx
	addl	-52(%rbp), %ecx
	movl	%ecx, -52(%rbp)
	movq	-80(%rbp), %rcx
	movq	-64(%rbp), %rdx
	movzbl	(%rdx), %edx
	movslq	%edx, %rdx
	xorl	%esi, %esi
	subq	%rdx, %rsi
	movb	(%rcx,%rsi), %cl
	movb	%cl, -41(%rbp)
	movzbl	-41(%rbp), %ecx
	imull	$3, %ecx, %ecx
	addl	-52(%rbp), %ecx
	movl	%ecx, -52(%rbp)
	movl	-88(%rbp), %ecx
	subl	$6, %ecx
	movq	-64(%rbp), %rdx
	movslq	%ecx, %rcx
	addq	%rdx, %rcx
	movq	%rcx, -64(%rbp)
	movq	-80(%rbp), %rcx
	movq	-64(%rbp), %rdx
	leaq	1(%rdx), %rsi
	movq	%rsi, -64(%rbp)
	movzbl	(%rdx), %edx
	movslq	%edx, %rdx
	xorl	%esi, %esi
	subq	%rdx, %rsi
	movb	(%rcx,%rsi), %cl
	movb	%cl, -41(%rbp)
	movzbl	-41(%rbp), %ecx
	imull	$3, %ecx, %ecx
	movl	-52(%rbp), %edx
	subl	%ecx, %edx
	movl	%edx, -52(%rbp)
	movzbl	-41(%rbp), %ecx
	addl	-48(%rbp), %ecx
	movl	%ecx, -48(%rbp)
	movq	-80(%rbp), %rcx
	movq	-64(%rbp), %rdx
	leaq	1(%rdx), %rsi
	movq	%rsi, -64(%rbp)
	movzbl	(%rdx), %edx
	movslq	%edx, %rdx
	xorl	%esi, %esi
	subq	%rdx, %rsi
	movb	(%rcx,%rsi), %cl
	movb	%cl, -41(%rbp)
	movzbl	-41(%rbp), %ecx
	shll	$1, %ecx
	movl	-52(%rbp), %edx
	subl	%ecx, %edx
	movl	%edx, -52(%rbp)
	movzbl	-41(%rbp), %ecx
	addl	-48(%rbp), %ecx
	movl	%ecx, -48(%rbp)
	movq	-80(%rbp), %rcx
	movq	-64(%rbp), %rdx
	leaq	1(%rdx), %rsi
	movq	%rsi, -64(%rbp)
	movzbl	(%rdx), %edx
	movslq	%edx, %rdx
	xorl	%esi, %esi
	subq	%rdx, %rsi
	movb	(%rcx,%rsi), %cl
	movb	%cl, -41(%rbp)
	movzbl	-41(%rbp), %ecx
	movl	-52(%rbp), %edx
	subl	%ecx, %edx
	movl	%edx, -52(%rbp)
	movzbl	-41(%rbp), %ecx
	addl	-48(%rbp), %ecx
	movl	%ecx, -48(%rbp)
	movq	-80(%rbp), %rcx
	movq	-64(%rbp), %rdx
	leaq	1(%rdx), %rsi
	movq	%rsi, -64(%rbp)
	movzbl	(%rdx), %edx
	movslq	%edx, %rdx
	xorl	%esi, %esi
	subq	%rdx, %rsi
	movb	(%rcx,%rsi), %cl
	movb	%cl, -41(%rbp)
	movzbl	-41(%rbp), %ecx
	addl	-48(%rbp), %ecx
	movl	%ecx, -48(%rbp)
	movq	-80(%rbp), %rcx
	movq	-64(%rbp), %rdx
	leaq	1(%rdx), %rsi
	movq	%rsi, -64(%rbp)
	movzbl	(%rdx), %edx
	movslq	%edx, %rdx
	xorl	%esi, %esi
	subq	%rdx, %rsi
	movb	(%rcx,%rsi), %cl
	movb	%cl, -41(%rbp)
	movzbl	-41(%rbp), %ecx
	addl	-52(%rbp), %ecx
	movl	%ecx, -52(%rbp)
	movzbl	-41(%rbp), %ecx
	addl	-48(%rbp), %ecx
	movl	%ecx, -48(%rbp)
	movq	-80(%rbp), %rcx
	movq	-64(%rbp), %rdx
	leaq	1(%rdx), %rsi
	movq	%rsi, -64(%rbp)
	movzbl	(%rdx), %edx
	movslq	%edx, %rdx
	xorl	%esi, %esi
	subq	%rdx, %rsi
	movb	(%rcx,%rsi), %cl
	movb	%cl, -41(%rbp)
	movzbl	-41(%rbp), %ecx
	shll	$1, %ecx
	addl	-52(%rbp), %ecx
	movl	%ecx, -52(%rbp)
	movzbl	-41(%rbp), %ecx
	addl	-48(%rbp), %ecx
	movl	%ecx, -48(%rbp)
	movq	-80(%rbp), %rcx
	movq	-64(%rbp), %rdx
	movzbl	(%rdx), %edx
	movslq	%edx, %rdx
	xorl	%esi, %esi
	subq	%rdx, %rsi
	movb	(%rcx,%rsi), %cl
	movb	%cl, -41(%rbp)
	movzbl	-41(%rbp), %ecx
	imull	$3, %ecx, %ecx
	addl	-52(%rbp), %ecx
	movl	%ecx, -52(%rbp)
	movzbl	-41(%rbp), %ecx
	addl	-48(%rbp), %ecx
	movl	%ecx, -48(%rbp)
	movl	-88(%rbp), %ecx
	subl	$5, %ecx
	movq	-64(%rbp), %rdx
	movslq	%ecx, %rcx
	addq	%rdx, %rcx
	movq	%rcx, -64(%rbp)
	movq	-80(%rbp), %rcx
	movq	-64(%rbp), %rdx
	leaq	1(%rdx), %rsi
	movq	%rsi, -64(%rbp)
	movzbl	(%rdx), %edx
	movslq	%edx, %rdx
	xorl	%esi, %esi
	subq	%rdx, %rsi
	movb	(%rcx,%rsi), %cl
	movb	%cl, -41(%rbp)
	movzbl	-41(%rbp), %ecx
	shll	$1, %ecx
	movl	-52(%rbp), %edx
	subl	%ecx, %edx
	movl	%edx, -52(%rbp)
	movzbl	-41(%rbp), %ecx
	shll	$1, %ecx
	addl	-48(%rbp), %ecx
	movl	%ecx, -48(%rbp)
	movq	-80(%rbp), %rcx
	movq	-64(%rbp), %rdx
	leaq	1(%rdx), %rsi
	movq	%rsi, -64(%rbp)
	movzbl	(%rdx), %edx
	movslq	%edx, %rdx
	xorl	%esi, %esi
	subq	%rdx, %rsi
	movb	(%rcx,%rsi), %cl
	movb	%cl, -41(%rbp)
	movzbl	-41(%rbp), %ecx
	movl	-52(%rbp), %edx
	subl	%ecx, %edx
	movl	%edx, -52(%rbp)
	movzbl	-41(%rbp), %ecx
	shll	$1, %ecx
	addl	-48(%rbp), %ecx
	movl	%ecx, -48(%rbp)
	movq	-80(%rbp), %rcx
	movq	-64(%rbp), %rdx
	leaq	1(%rdx), %rsi
	movq	%rsi, -64(%rbp)
	movzbl	(%rdx), %edx
	movslq	%edx, %rdx
	xorl	%esi, %esi
	subq	%rdx, %rsi
	movb	(%rcx,%rsi), %cl
	movb	%cl, -41(%rbp)
	movzbl	-41(%rbp), %ecx
	shll	$1, %ecx
	addl	-48(%rbp), %ecx
	movl	%ecx, -48(%rbp)
	movq	-80(%rbp), %rcx
	movq	-64(%rbp), %rdx
	leaq	1(%rdx), %rsi
	movq	%rsi, -64(%rbp)
	movzbl	(%rdx), %edx
	movslq	%edx, %rdx
	xorl	%esi, %esi
	subq	%rdx, %rsi
	movb	(%rcx,%rsi), %cl
	movb	%cl, -41(%rbp)
	movzbl	-41(%rbp), %ecx
	addl	-52(%rbp), %ecx
	movl	%ecx, -52(%rbp)
	movzbl	-41(%rbp), %ecx
	shll	$1, %ecx
	addl	-48(%rbp), %ecx
	movl	%ecx, -48(%rbp)
	movq	-80(%rbp), %rcx
	movq	-64(%rbp), %rdx
	movzbl	(%rdx), %edx
	movslq	%edx, %rdx
	xorl	%esi, %esi
	subq	%rdx, %rsi
	movb	(%rcx,%rsi), %cl
	movb	%cl, -41(%rbp)
	movzbl	-41(%rbp), %ecx
	shll	$1, %ecx
	addl	-52(%rbp), %ecx
	movl	%ecx, -52(%rbp)
	movzbl	-41(%rbp), %ecx
	shll	$1, %ecx
	addl	-48(%rbp), %ecx
	movl	%ecx, -48(%rbp)
	movl	-88(%rbp), %ecx
	subl	$3, %ecx
	movq	-64(%rbp), %rdx
	movslq	%ecx, %rcx
	addq	%rdx, %rcx
	movq	%rcx, -64(%rbp)
	movq	-80(%rbp), %rcx
	movq	-64(%rbp), %rdx
	leaq	1(%rdx), %rsi
	movq	%rsi, -64(%rbp)
	movzbl	(%rdx), %edx
	movslq	%edx, %rdx
	xorl	%esi, %esi
	subq	%rdx, %rsi
	movb	(%rcx,%rsi), %cl
	movb	%cl, -41(%rbp)
	movzbl	-41(%rbp), %ecx
	movl	-52(%rbp), %edx
	subl	%ecx, %edx
	movl	%edx, -52(%rbp)
	movzbl	-41(%rbp), %ecx
	imull	$3, %ecx, %ecx
	addl	-48(%rbp), %ecx
	movl	%ecx, -48(%rbp)
	movq	-80(%rbp), %rcx
	movq	-64(%rbp), %rdx
	leaq	1(%rdx), %rsi
	movq	%rsi, -64(%rbp)
	movzbl	(%rdx), %edx
	movslq	%edx, %rdx
	xorl	%esi, %esi
	subq	%rdx, %rsi
	movb	(%rcx,%rsi), %cl
	movb	%cl, -41(%rbp)
	movzbl	-41(%rbp), %ecx
	imull	$3, %ecx, %ecx
	addl	-48(%rbp), %ecx
	movl	%ecx, -48(%rbp)
	movq	-80(%rbp), %rcx
	movq	-64(%rbp), %rdx
	movzbl	(%rdx), %edx
	movslq	%edx, %rdx
	subq	%rdx, %rax
	movb	(%rcx,%rax), %al
	movb	%al, -41(%rbp)
	movzbl	-41(%rbp), %eax
	addl	-52(%rbp), %eax
	movl	%eax, -52(%rbp)
	movzbl	-41(%rbp), %eax
	imull	$3, %eax, %eax
	addl	-48(%rbp), %eax
	movl	%eax, -48(%rbp)
	movl	-52(%rbp), %eax
	imull	-52(%rbp), %eax
	movl	-48(%rbp), %ecx
	imull	-48(%rbp), %ecx
	addl	%eax, %ecx
	cvtsi2ssl	%ecx, %xmm0
	cvtss2sd	%xmm0, %xmm0
	callq	sqrt
	movsd	%xmm0, -144(%rbp)       # 8-byte Spill
# BB#18:                                #   in Loop: Header=BB13_14 Depth=2
	movl	$1769491, %edi          # imm = 0x1B0013
	callq	enqueue_signature
	movsd	.LCPI13_0(%rip), %xmm0  # xmm0 = mem[0],zero
	movsd	-144(%rbp), %xmm1       # 8-byte Reload
                                        # xmm1 = mem[0],zero
	cvtsd2ss	%xmm1, %xmm1
	movss	%xmm1, -108(%rbp)
	cvtss2sd	-108(%rbp), %xmm1
	cvtsi2ssl	-68(%rbp), %xmm2
	cvtss2sd	%xmm2, %xmm2
	mulsd	%xmm0, %xmm2
	ucomisd	%xmm2, %xmm1
	jbe	.LBB13_40
# BB#19:                                #   in Loop: Header=BB13_14 Depth=2
	movl	$1769492, %edi          # imm = 0x1B0014
	callq	enqueue_signature
	movl	$0, -124(%rbp)
	cmpl	$0, -52(%rbp)
	jne	.LBB13_21
# BB#20:                                #   in Loop: Header=BB13_14 Depth=2
	movl	$1769493, %edi          # imm = 0x1B0015
	callq	enqueue_signature
	movss	.LCPI13_1(%rip), %xmm0  # xmm0 = mem[0],zero,zero,zero
	movss	%xmm0, -108(%rbp)
	jmp	.LBB13_22
.LBB13_21:                              #   in Loop: Header=BB13_14 Depth=2
	movl	$1769494, %edi          # imm = 0x1B0016
	callq	enqueue_signature
	cvtsi2ssl	-48(%rbp), %xmm0
	cvtsi2ssl	-52(%rbp), %xmm1
	divss	%xmm1, %xmm0
	movss	%xmm0, -108(%rbp)
.LBB13_22:                              #   in Loop: Header=BB13_14 Depth=2
	movl	$1769495, %edi          # imm = 0x1B0017
	callq	enqueue_signature
	xorps	%xmm0, %xmm0
	ucomiss	-108(%rbp), %xmm0
	jbe	.LBB13_24
# BB#23:                                #   in Loop: Header=BB13_14 Depth=2
	movl	$1769496, %edi          # imm = 0x1B0018
	callq	enqueue_signature
	movss	-108(%rbp), %xmm0       # xmm0 = mem[0],zero,zero,zero
	movd	%xmm0, %eax
	xorl	$2147483648, %eax       # imm = 0x80000000
	movd	%eax, %xmm0
	movss	%xmm0, -108(%rbp)
	movl	$-1, -84(%rbp)
	jmp	.LBB13_25
.LBB13_24:                              #   in Loop: Header=BB13_14 Depth=2
	movl	$1769497, %edi          # imm = 0x1B0019
	callq	enqueue_signature
	movl	$1, -84(%rbp)
.LBB13_25:                              #   in Loop: Header=BB13_14 Depth=2
	movl	$1769498, %edi          # imm = 0x1B001A
	callq	enqueue_signature
	movsd	.LCPI13_2(%rip), %xmm0  # xmm0 = mem[0],zero
	cvtss2sd	-108(%rbp), %xmm1
	ucomisd	%xmm1, %xmm0
	jbe	.LBB13_27
# BB#26:                                #   in Loop: Header=BB13_14 Depth=2
	movl	$1769499, %edi          # imm = 0x1B001B
	callq	enqueue_signature
	movl	$0, -104(%rbp)
	movl	$1, -100(%rbp)
	jmp	.LBB13_34
.LBB13_27:                              #   in Loop: Header=BB13_14 Depth=2
	movl	$1769500, %edi          # imm = 0x1B001C
	callq	enqueue_signature
	movsd	.LCPI13_3(%rip), %xmm0  # xmm0 = mem[0],zero
	cvtss2sd	-108(%rbp), %xmm1
	ucomisd	%xmm0, %xmm1
	jbe	.LBB13_29
# BB#28:                                #   in Loop: Header=BB13_14 Depth=2
	movl	$1769501, %edi          # imm = 0x1B001D
	callq	enqueue_signature
	movl	$1, -104(%rbp)
	movl	$0, -100(%rbp)
	jmp	.LBB13_33
.LBB13_29:                              #   in Loop: Header=BB13_14 Depth=2
	movl	$1769502, %edi          # imm = 0x1B001E
	callq	enqueue_signature
	cmpl	$0, -84(%rbp)
	jle	.LBB13_31
# BB#30:                                #   in Loop: Header=BB13_14 Depth=2
	movl	$1769503, %edi          # imm = 0x1B001F
	callq	enqueue_signature
	movl	$1, -104(%rbp)
	movl	$1, -100(%rbp)
	jmp	.LBB13_32
.LBB13_31:                              #   in Loop: Header=BB13_14 Depth=2
	movl	$1769504, %edi          # imm = 0x1B0020
	callq	enqueue_signature
	movl	$-1, -104(%rbp)
	movl	$1, -100(%rbp)
.LBB13_32:                              #   in Loop: Header=BB13_14 Depth=2
	movl	$1769505, %edi          # imm = 0x1B0021
	callq	enqueue_signature
.LBB13_33:                              #   in Loop: Header=BB13_14 Depth=2
	movl	$1769506, %edi          # imm = 0x1B0022
	callq	enqueue_signature
.LBB13_34:                              #   in Loop: Header=BB13_14 Depth=2
	movl	$1769507, %edi          # imm = 0x1B0023
	callq	enqueue_signature
	movl	-112(%rbp), %eax
	movq	-120(%rbp), %rcx
	movl	-96(%rbp), %edx
	addl	-104(%rbp), %edx
	imull	-88(%rbp), %edx
	addl	-92(%rbp), %edx
	addl	-100(%rbp), %edx
	movslq	%edx, %rdx
	cmpl	(%rcx,%rdx,4), %eax
	jle	.LBB13_39
# BB#35:                                #   in Loop: Header=BB13_14 Depth=2
	movl	$1769508, %edi          # imm = 0x1B0024
	callq	enqueue_signature
	movl	-112(%rbp), %eax
	movq	-120(%rbp), %rcx
	movl	-96(%rbp), %edx
	subl	-104(%rbp), %edx
	imull	-88(%rbp), %edx
	addl	-92(%rbp), %edx
	subl	-100(%rbp), %edx
	movslq	%edx, %rdx
	cmpl	(%rcx,%rdx,4), %eax
	jl	.LBB13_39
# BB#36:                                #   in Loop: Header=BB13_14 Depth=2
	movl	$1769509, %edi          # imm = 0x1B0025
	callq	enqueue_signature
	movl	-112(%rbp), %eax
	movq	-120(%rbp), %rcx
	movl	-96(%rbp), %edx
	movl	-104(%rbp), %esi
	shll	$1, %esi
	addl	%edx, %esi
	imull	-88(%rbp), %esi
	addl	-92(%rbp), %esi
	movl	-100(%rbp), %edx
	shll	$1, %edx
	addl	%esi, %edx
	movslq	%edx, %rdx
	cmpl	(%rcx,%rdx,4), %eax
	jle	.LBB13_39
# BB#37:                                #   in Loop: Header=BB13_14 Depth=2
	movl	$1769510, %edi          # imm = 0x1B0026
	callq	enqueue_signature
	movl	-112(%rbp), %eax
	movq	-120(%rbp), %rcx
	movl	-96(%rbp), %edx
	movl	-104(%rbp), %esi
	shll	$1, %esi
	subl	%esi, %edx
	imull	-88(%rbp), %edx
	addl	-92(%rbp), %edx
	movl	-100(%rbp), %esi
	shll	$1, %esi
	subl	%esi, %edx
	movslq	%edx, %rdx
	cmpl	(%rcx,%rdx,4), %eax
	jl	.LBB13_39
# BB#38:                                #   in Loop: Header=BB13_14 Depth=2
	movl	$1769511, %edi          # imm = 0x1B0027
	callq	enqueue_signature
	movq	-160(%rbp), %rax
	movl	-96(%rbp), %ecx
	imull	-88(%rbp), %ecx
	addl	-92(%rbp), %ecx
	movslq	%ecx, %rcx
	movb	$1, (%rax,%rcx)
.LBB13_39:                              #   in Loop: Header=BB13_14 Depth=2
	movl	$1769512, %edi          # imm = 0x1B0028
	callq	enqueue_signature
	jmp	.LBB13_41
.LBB13_40:                              #   in Loop: Header=BB13_14 Depth=2
	movl	$1769513, %edi          # imm = 0x1B0029
	callq	enqueue_signature
	movl	$1, -124(%rbp)
.LBB13_41:                              #   in Loop: Header=BB13_14 Depth=2
	movl	$1769514, %edi          # imm = 0x1B002A
	callq	enqueue_signature
	jmp	.LBB13_43
.LBB13_42:                              #   in Loop: Header=BB13_14 Depth=2
	movl	$1769515, %edi          # imm = 0x1B002B
	callq	enqueue_signature
	movl	$1, -124(%rbp)
.LBB13_43:                              #   in Loop: Header=BB13_14 Depth=2
	movl	$1769516, %edi          # imm = 0x1B002C
	callq	enqueue_signature
	cmpl	$1, -124(%rbp)
	jne	.LBB13_62
# BB#44:                                #   in Loop: Header=BB13_14 Depth=2
	movl	$1769517, %edi          # imm = 0x1B002D
	callq	enqueue_signature
	xorl	%eax, %eax
	movq	-136(%rbp), %rcx
	movl	-96(%rbp), %edx
	subl	$3, %edx
	imull	-88(%rbp), %edx
	movslq	%edx, %rdx
	addq	%rcx, %rdx
	movslq	-92(%rbp), %rcx
	addq	%rdx, %rcx
	addq	$-1, %rcx
	movq	%rcx, -64(%rbp)
	movl	$0, -52(%rbp)
	movl	$0, -48(%rbp)
	movl	$0, -84(%rbp)
	movq	-80(%rbp), %rcx
	movq	-64(%rbp), %rdx
	leaq	1(%rdx), %rsi
	movq	%rsi, -64(%rbp)
	movzbl	(%rdx), %edx
	movslq	%edx, %rdx
	xorl	%esi, %esi
	subq	%rdx, %rsi
	movb	(%rcx,%rsi), %cl
	movb	%cl, -41(%rbp)
	movzbl	-41(%rbp), %ecx
	addl	-52(%rbp), %ecx
	movl	%ecx, -52(%rbp)
	movzbl	-41(%rbp), %ecx
	imull	$9, %ecx, %ecx
	addl	-48(%rbp), %ecx
	movl	%ecx, -48(%rbp)
	movzbl	-41(%rbp), %ecx
	imull	$3, %ecx, %ecx
	addl	-84(%rbp), %ecx
	movl	%ecx, -84(%rbp)
	movq	-80(%rbp), %rcx
	movq	-64(%rbp), %rdx
	leaq	1(%rdx), %rsi
	movq	%rsi, -64(%rbp)
	movzbl	(%rdx), %edx
	movslq	%edx, %rdx
	xorl	%esi, %esi
	subq	%rdx, %rsi
	movb	(%rcx,%rsi), %cl
	movb	%cl, -41(%rbp)
	movzbl	-41(%rbp), %ecx
	imull	$9, %ecx, %ecx
	addl	-48(%rbp), %ecx
	movl	%ecx, -48(%rbp)
	movq	-80(%rbp), %rcx
	movq	-64(%rbp), %rdx
	movzbl	(%rdx), %edx
	movslq	%edx, %rdx
	xorl	%esi, %esi
	subq	%rdx, %rsi
	movb	(%rcx,%rsi), %cl
	movb	%cl, -41(%rbp)
	movzbl	-41(%rbp), %ecx
	addl	-52(%rbp), %ecx
	movl	%ecx, -52(%rbp)
	movzbl	-41(%rbp), %ecx
	imull	$9, %ecx, %ecx
	addl	-48(%rbp), %ecx
	movl	%ecx, -48(%rbp)
	movzbl	-41(%rbp), %ecx
	imull	$3, %ecx, %ecx
	movl	-84(%rbp), %edx
	subl	%ecx, %edx
	movl	%edx, -84(%rbp)
	movl	-88(%rbp), %ecx
	subl	$3, %ecx
	movq	-64(%rbp), %rdx
	movslq	%ecx, %rcx
	addq	%rdx, %rcx
	movq	%rcx, -64(%rbp)
	movq	-80(%rbp), %rcx
	movq	-64(%rbp), %rdx
	leaq	1(%rdx), %rsi
	movq	%rsi, -64(%rbp)
	movzbl	(%rdx), %edx
	movslq	%edx, %rdx
	xorl	%esi, %esi
	subq	%rdx, %rsi
	movb	(%rcx,%rsi), %cl
	movb	%cl, -41(%rbp)
	movzbl	-41(%rbp), %ecx
	shll	$2, %ecx
	addl	-52(%rbp), %ecx
	movl	%ecx, -52(%rbp)
	movzbl	-41(%rbp), %ecx
	shll	$2, %ecx
	addl	-48(%rbp), %ecx
	movl	%ecx, -48(%rbp)
	movzbl	-41(%rbp), %ecx
	shll	$2, %ecx
	addl	-84(%rbp), %ecx
	movl	%ecx, -84(%rbp)
	movq	-80(%rbp), %rcx
	movq	-64(%rbp), %rdx
	leaq	1(%rdx), %rsi
	movq	%rsi, -64(%rbp)
	movzbl	(%rdx), %edx
	movslq	%edx, %rdx
	xorl	%esi, %esi
	subq	%rdx, %rsi
	movb	(%rcx,%rsi), %cl
	movb	%cl, -41(%rbp)
	movzbl	-41(%rbp), %ecx
	addl	-52(%rbp), %ecx
	movl	%ecx, -52(%rbp)
	movzbl	-41(%rbp), %ecx
	shll	$2, %ecx
	addl	-48(%rbp), %ecx
	movl	%ecx, -48(%rbp)
	movzbl	-41(%rbp), %ecx
	shll	$1, %ecx
	addl	-84(%rbp), %ecx
	movl	%ecx, -84(%rbp)
	movq	-80(%rbp), %rcx
	movq	-64(%rbp), %rdx
	leaq	1(%rdx), %rsi
	movq	%rsi, -64(%rbp)
	movzbl	(%rdx), %edx
	movslq	%edx, %rdx
	xorl	%esi, %esi
	subq	%rdx, %rsi
	movb	(%rcx,%rsi), %cl
	movb	%cl, -41(%rbp)
	movzbl	-41(%rbp), %ecx
	shll	$2, %ecx
	addl	-48(%rbp), %ecx
	movl	%ecx, -48(%rbp)
	movq	-80(%rbp), %rcx
	movq	-64(%rbp), %rdx
	leaq	1(%rdx), %rsi
	movq	%rsi, -64(%rbp)
	movzbl	(%rdx), %edx
	movslq	%edx, %rdx
	xorl	%esi, %esi
	subq	%rdx, %rsi
	movb	(%rcx,%rsi), %cl
	movb	%cl, -41(%rbp)
	movzbl	-41(%rbp), %ecx
	addl	-52(%rbp), %ecx
	movl	%ecx, -52(%rbp)
	movzbl	-41(%rbp), %ecx
	shll	$2, %ecx
	addl	-48(%rbp), %ecx
	movl	%ecx, -48(%rbp)
	movzbl	-41(%rbp), %ecx
	shll	$1, %ecx
	movl	-84(%rbp), %edx
	subl	%ecx, %edx
	movl	%edx, -84(%rbp)
	movq	-80(%rbp), %rcx
	movq	-64(%rbp), %rdx
	movzbl	(%rdx), %edx
	movslq	%edx, %rdx
	xorl	%esi, %esi
	subq	%rdx, %rsi
	movb	(%rcx,%rsi), %cl
	movb	%cl, -41(%rbp)
	movzbl	-41(%rbp), %ecx
	shll	$2, %ecx
	addl	-52(%rbp), %ecx
	movl	%ecx, -52(%rbp)
	movzbl	-41(%rbp), %ecx
	shll	$2, %ecx
	addl	-48(%rbp), %ecx
	movl	%ecx, -48(%rbp)
	movzbl	-41(%rbp), %ecx
	shll	$2, %ecx
	movl	-84(%rbp), %edx
	subl	%ecx, %edx
	movl	%edx, -84(%rbp)
	movl	-88(%rbp), %ecx
	subl	$5, %ecx
	movq	-64(%rbp), %rdx
	movslq	%ecx, %rcx
	addq	%rdx, %rcx
	movq	%rcx, -64(%rbp)
	movq	-80(%rbp), %rcx
	movq	-64(%rbp), %rdx
	leaq	1(%rdx), %rsi
	movq	%rsi, -64(%rbp)
	movzbl	(%rdx), %edx
	movslq	%edx, %rdx
	xorl	%esi, %esi
	subq	%rdx, %rsi
	movb	(%rcx,%rsi), %cl
	movb	%cl, -41(%rbp)
	movzbl	-41(%rbp), %ecx
	imull	$9, %ecx, %ecx
	addl	-52(%rbp), %ecx
	movl	%ecx, -52(%rbp)
	movzbl	-41(%rbp), %ecx
	addl	-48(%rbp), %ecx
	movl	%ecx, -48(%rbp)
	movzbl	-41(%rbp), %ecx
	imull	$3, %ecx, %ecx
	addl	-84(%rbp), %ecx
	movl	%ecx, -84(%rbp)
	movq	-80(%rbp), %rcx
	movq	-64(%rbp), %rdx
	leaq	1(%rdx), %rsi
	movq	%rsi, -64(%rbp)
	movzbl	(%rdx), %edx
	movslq	%edx, %rdx
	xorl	%esi, %esi
	subq	%rdx, %rsi
	movb	(%rcx,%rsi), %cl
	movb	%cl, -41(%rbp)
	movzbl	-41(%rbp), %ecx
	shll	$2, %ecx
	addl	-52(%rbp), %ecx
	movl	%ecx, -52(%rbp)
	movzbl	-41(%rbp), %ecx
	addl	-48(%rbp), %ecx
	movl	%ecx, -48(%rbp)
	movzbl	-41(%rbp), %ecx
	shll	$1, %ecx
	addl	-84(%rbp), %ecx
	movl	%ecx, -84(%rbp)
	movq	-80(%rbp), %rcx
	movq	-64(%rbp), %rdx
	leaq	1(%rdx), %rsi
	movq	%rsi, -64(%rbp)
	movzbl	(%rdx), %edx
	movslq	%edx, %rdx
	xorl	%esi, %esi
	subq	%rdx, %rsi
	movb	(%rcx,%rsi), %cl
	movb	%cl, -41(%rbp)
	movzbl	-41(%rbp), %ecx
	addl	-52(%rbp), %ecx
	movl	%ecx, -52(%rbp)
	movzbl	-41(%rbp), %ecx
	addl	-48(%rbp), %ecx
	movl	%ecx, -48(%rbp)
	movzbl	-41(%rbp), %ecx
	addl	-84(%rbp), %ecx
	movl	%ecx, -84(%rbp)
	movq	-80(%rbp), %rcx
	movq	-64(%rbp), %rdx
	leaq	1(%rdx), %rsi
	movq	%rsi, -64(%rbp)
	movzbl	(%rdx), %edx
	movslq	%edx, %rdx
	xorl	%esi, %esi
	subq	%rdx, %rsi
	movb	(%rcx,%rsi), %cl
	movb	%cl, -41(%rbp)
	movzbl	-41(%rbp), %ecx
	addl	-48(%rbp), %ecx
	movl	%ecx, -48(%rbp)
	movq	-80(%rbp), %rcx
	movq	-64(%rbp), %rdx
	leaq	1(%rdx), %rsi
	movq	%rsi, -64(%rbp)
	movzbl	(%rdx), %edx
	movslq	%edx, %rdx
	xorl	%esi, %esi
	subq	%rdx, %rsi
	movb	(%rcx,%rsi), %cl
	movb	%cl, -41(%rbp)
	movzbl	-41(%rbp), %ecx
	addl	-52(%rbp), %ecx
	movl	%ecx, -52(%rbp)
	movzbl	-41(%rbp), %ecx
	addl	-48(%rbp), %ecx
	movl	%ecx, -48(%rbp)
	movzbl	-41(%rbp), %ecx
	movl	-84(%rbp), %edx
	subl	%ecx, %edx
	movl	%edx, -84(%rbp)
	movq	-80(%rbp), %rcx
	movq	-64(%rbp), %rdx
	leaq	1(%rdx), %rsi
	movq	%rsi, -64(%rbp)
	movzbl	(%rdx), %edx
	movslq	%edx, %rdx
	xorl	%esi, %esi
	subq	%rdx, %rsi
	movb	(%rcx,%rsi), %cl
	movb	%cl, -41(%rbp)
	movzbl	-41(%rbp), %ecx
	shll	$2, %ecx
	addl	-52(%rbp), %ecx
	movl	%ecx, -52(%rbp)
	movzbl	-41(%rbp), %ecx
	addl	-48(%rbp), %ecx
	movl	%ecx, -48(%rbp)
	movzbl	-41(%rbp), %ecx
	shll	$1, %ecx
	movl	-84(%rbp), %edx
	subl	%ecx, %edx
	movl	%edx, -84(%rbp)
	movq	-80(%rbp), %rcx
	movq	-64(%rbp), %rdx
	movzbl	(%rdx), %edx
	movslq	%edx, %rdx
	xorl	%esi, %esi
	subq	%rdx, %rsi
	movb	(%rcx,%rsi), %cl
	movb	%cl, -41(%rbp)
	movzbl	-41(%rbp), %ecx
	imull	$9, %ecx, %ecx
	addl	-52(%rbp), %ecx
	movl	%ecx, -52(%rbp)
	movzbl	-41(%rbp), %ecx
	addl	-48(%rbp), %ecx
	movl	%ecx, -48(%rbp)
	movzbl	-41(%rbp), %ecx
	imull	$3, %ecx, %ecx
	movl	-84(%rbp), %edx
	subl	%ecx, %edx
	movl	%edx, -84(%rbp)
	movl	-88(%rbp), %ecx
	subl	$6, %ecx
	movq	-64(%rbp), %rdx
	movslq	%ecx, %rcx
	addq	%rdx, %rcx
	movq	%rcx, -64(%rbp)
	movq	-80(%rbp), %rcx
	movq	-64(%rbp), %rdx
	leaq	1(%rdx), %rsi
	movq	%rsi, -64(%rbp)
	movzbl	(%rdx), %edx
	movslq	%edx, %rdx
	xorl	%esi, %esi
	subq	%rdx, %rsi
	movb	(%rcx,%rsi), %cl
	movb	%cl, -41(%rbp)
	movzbl	-41(%rbp), %ecx
	imull	$9, %ecx, %ecx
	addl	-52(%rbp), %ecx
	movl	%ecx, -52(%rbp)
	movq	-80(%rbp), %rcx
	movq	-64(%rbp), %rdx
	leaq	1(%rdx), %rsi
	movq	%rsi, -64(%rbp)
	movzbl	(%rdx), %edx
	movslq	%edx, %rdx
	xorl	%esi, %esi
	subq	%rdx, %rsi
	movb	(%rcx,%rsi), %cl
	movb	%cl, -41(%rbp)
	movzbl	-41(%rbp), %ecx
	shll	$2, %ecx
	addl	-52(%rbp), %ecx
	movl	%ecx, -52(%rbp)
	movq	-80(%rbp), %rcx
	movq	-64(%rbp), %rdx
	movzbl	(%rdx), %edx
	movslq	%edx, %rdx
	xorl	%esi, %esi
	subq	%rdx, %rsi
	movb	(%rcx,%rsi), %cl
	movb	%cl, -41(%rbp)
	movzbl	-41(%rbp), %ecx
	addl	-52(%rbp), %ecx
	movl	%ecx, -52(%rbp)
	movq	-64(%rbp), %rcx
	addq	$2, %rcx
	movq	%rcx, -64(%rbp)
	movq	-80(%rbp), %rcx
	movq	-64(%rbp), %rdx
	leaq	1(%rdx), %rsi
	movq	%rsi, -64(%rbp)
	movzbl	(%rdx), %edx
	movslq	%edx, %rdx
	xorl	%esi, %esi
	subq	%rdx, %rsi
	movb	(%rcx,%rsi), %cl
	movb	%cl, -41(%rbp)
	movzbl	-41(%rbp), %ecx
	addl	-52(%rbp), %ecx
	movl	%ecx, -52(%rbp)
	movq	-80(%rbp), %rcx
	movq	-64(%rbp), %rdx
	leaq	1(%rdx), %rsi
	movq	%rsi, -64(%rbp)
	movzbl	(%rdx), %edx
	movslq	%edx, %rdx
	xorl	%esi, %esi
	subq	%rdx, %rsi
	movb	(%rcx,%rsi), %cl
	movb	%cl, -41(%rbp)
	movzbl	-41(%rbp), %ecx
	shll	$2, %ecx
	addl	-52(%rbp), %ecx
	movl	%ecx, -52(%rbp)
	movq	-80(%rbp), %rcx
	movq	-64(%rbp), %rdx
	movzbl	(%rdx), %edx
	movslq	%edx, %rdx
	xorl	%esi, %esi
	subq	%rdx, %rsi
	movb	(%rcx,%rsi), %cl
	movb	%cl, -41(%rbp)
	movzbl	-41(%rbp), %ecx
	imull	$9, %ecx, %ecx
	addl	-52(%rbp), %ecx
	movl	%ecx, -52(%rbp)
	movl	-88(%rbp), %ecx
	subl	$6, %ecx
	movq	-64(%rbp), %rdx
	movslq	%ecx, %rcx
	addq	%rdx, %rcx
	movq	%rcx, -64(%rbp)
	movq	-80(%rbp), %rcx
	movq	-64(%rbp), %rdx
	leaq	1(%rdx), %rsi
	movq	%rsi, -64(%rbp)
	movzbl	(%rdx), %edx
	movslq	%edx, %rdx
	xorl	%esi, %esi
	subq	%rdx, %rsi
	movb	(%rcx,%rsi), %cl
	movb	%cl, -41(%rbp)
	movzbl	-41(%rbp), %ecx
	imull	$9, %ecx, %ecx
	addl	-52(%rbp), %ecx
	movl	%ecx, -52(%rbp)
	movzbl	-41(%rbp), %ecx
	addl	-48(%rbp), %ecx
	movl	%ecx, -48(%rbp)
	movzbl	-41(%rbp), %ecx
	imull	$3, %ecx, %ecx
	movl	-84(%rbp), %edx
	subl	%ecx, %edx
	movl	%edx, -84(%rbp)
	movq	-80(%rbp), %rcx
	movq	-64(%rbp), %rdx
	leaq	1(%rdx), %rsi
	movq	%rsi, -64(%rbp)
	movzbl	(%rdx), %edx
	movslq	%edx, %rdx
	xorl	%esi, %esi
	subq	%rdx, %rsi
	movb	(%rcx,%rsi), %cl
	movb	%cl, -41(%rbp)
	movzbl	-41(%rbp), %ecx
	shll	$2, %ecx
	addl	-52(%rbp), %ecx
	movl	%ecx, -52(%rbp)
	movzbl	-41(%rbp), %ecx
	addl	-48(%rbp), %ecx
	movl	%ecx, -48(%rbp)
	movzbl	-41(%rbp), %ecx
	shll	$1, %ecx
	movl	-84(%rbp), %edx
	subl	%ecx, %edx
	movl	%edx, -84(%rbp)
	movq	-80(%rbp), %rcx
	movq	-64(%rbp), %rdx
	leaq	1(%rdx), %rsi
	movq	%rsi, -64(%rbp)
	movzbl	(%rdx), %edx
	movslq	%edx, %rdx
	xorl	%esi, %esi
	subq	%rdx, %rsi
	movb	(%rcx,%rsi), %cl
	movb	%cl, -41(%rbp)
	movzbl	-41(%rbp), %ecx
	addl	-52(%rbp), %ecx
	movl	%ecx, -52(%rbp)
	movzbl	-41(%rbp), %ecx
	addl	-48(%rbp), %ecx
	movl	%ecx, -48(%rbp)
	movzbl	-41(%rbp), %ecx
	movl	-84(%rbp), %edx
	subl	%ecx, %edx
	movl	%edx, -84(%rbp)
	movq	-80(%rbp), %rcx
	movq	-64(%rbp), %rdx
	leaq	1(%rdx), %rsi
	movq	%rsi, -64(%rbp)
	movzbl	(%rdx), %edx
	movslq	%edx, %rdx
	xorl	%esi, %esi
	subq	%rdx, %rsi
	movb	(%rcx,%rsi), %cl
	movb	%cl, -41(%rbp)
	movzbl	-41(%rbp), %ecx
	addl	-48(%rbp), %ecx
	movl	%ecx, -48(%rbp)
	movq	-80(%rbp), %rcx
	movq	-64(%rbp), %rdx
	leaq	1(%rdx), %rsi
	movq	%rsi, -64(%rbp)
	movzbl	(%rdx), %edx
	movslq	%edx, %rdx
	xorl	%esi, %esi
	subq	%rdx, %rsi
	movb	(%rcx,%rsi), %cl
	movb	%cl, -41(%rbp)
	movzbl	-41(%rbp), %ecx
	addl	-52(%rbp), %ecx
	movl	%ecx, -52(%rbp)
	movzbl	-41(%rbp), %ecx
	addl	-48(%rbp), %ecx
	movl	%ecx, -48(%rbp)
	movzbl	-41(%rbp), %ecx
	addl	-84(%rbp), %ecx
	movl	%ecx, -84(%rbp)
	movq	-80(%rbp), %rcx
	movq	-64(%rbp), %rdx
	leaq	1(%rdx), %rsi
	movq	%rsi, -64(%rbp)
	movzbl	(%rdx), %edx
	movslq	%edx, %rdx
	xorl	%esi, %esi
	subq	%rdx, %rsi
	movb	(%rcx,%rsi), %cl
	movb	%cl, -41(%rbp)
	movzbl	-41(%rbp), %ecx
	shll	$2, %ecx
	addl	-52(%rbp), %ecx
	movl	%ecx, -52(%rbp)
	movzbl	-41(%rbp), %ecx
	addl	-48(%rbp), %ecx
	movl	%ecx, -48(%rbp)
	movzbl	-41(%rbp), %ecx
	shll	$1, %ecx
	addl	-84(%rbp), %ecx
	movl	%ecx, -84(%rbp)
	movq	-80(%rbp), %rcx
	movq	-64(%rbp), %rdx
	movzbl	(%rdx), %edx
	movslq	%edx, %rdx
	xorl	%esi, %esi
	subq	%rdx, %rsi
	movb	(%rcx,%rsi), %cl
	movb	%cl, -41(%rbp)
	movzbl	-41(%rbp), %ecx
	imull	$9, %ecx, %ecx
	addl	-52(%rbp), %ecx
	movl	%ecx, -52(%rbp)
	movzbl	-41(%rbp), %ecx
	addl	-48(%rbp), %ecx
	movl	%ecx, -48(%rbp)
	movzbl	-41(%rbp), %ecx
	imull	$3, %ecx, %ecx
	addl	-84(%rbp), %ecx
	movl	%ecx, -84(%rbp)
	movl	-88(%rbp), %ecx
	subl	$5, %ecx
	movq	-64(%rbp), %rdx
	movslq	%ecx, %rcx
	addq	%rdx, %rcx
	movq	%rcx, -64(%rbp)
	movq	-80(%rbp), %rcx
	movq	-64(%rbp), %rdx
	leaq	1(%rdx), %rsi
	movq	%rsi, -64(%rbp)
	movzbl	(%rdx), %edx
	movslq	%edx, %rdx
	xorl	%esi, %esi
	subq	%rdx, %rsi
	movb	(%rcx,%rsi), %cl
	movb	%cl, -41(%rbp)
	movzbl	-41(%rbp), %ecx
	shll	$2, %ecx
	addl	-52(%rbp), %ecx
	movl	%ecx, -52(%rbp)
	movzbl	-41(%rbp), %ecx
	shll	$2, %ecx
	addl	-48(%rbp), %ecx
	movl	%ecx, -48(%rbp)
	movzbl	-41(%rbp), %ecx
	shll	$2, %ecx
	movl	-84(%rbp), %edx
	subl	%ecx, %edx
	movl	%edx, -84(%rbp)
	movq	-80(%rbp), %rcx
	movq	-64(%rbp), %rdx
	leaq	1(%rdx), %rsi
	movq	%rsi, -64(%rbp)
	movzbl	(%rdx), %edx
	movslq	%edx, %rdx
	xorl	%esi, %esi
	subq	%rdx, %rsi
	movb	(%rcx,%rsi), %cl
	movb	%cl, -41(%rbp)
	movzbl	-41(%rbp), %ecx
	addl	-52(%rbp), %ecx
	movl	%ecx, -52(%rbp)
	movzbl	-41(%rbp), %ecx
	shll	$2, %ecx
	addl	-48(%rbp), %ecx
	movl	%ecx, -48(%rbp)
	movzbl	-41(%rbp), %ecx
	shll	$1, %ecx
	movl	-84(%rbp), %edx
	subl	%ecx, %edx
	movl	%edx, -84(%rbp)
	movq	-80(%rbp), %rcx
	movq	-64(%rbp), %rdx
	leaq	1(%rdx), %rsi
	movq	%rsi, -64(%rbp)
	movzbl	(%rdx), %edx
	movslq	%edx, %rdx
	xorl	%esi, %esi
	subq	%rdx, %rsi
	movb	(%rcx,%rsi), %cl
	movb	%cl, -41(%rbp)
	movzbl	-41(%rbp), %ecx
	shll	$2, %ecx
	addl	-48(%rbp), %ecx
	movl	%ecx, -48(%rbp)
	movq	-80(%rbp), %rcx
	movq	-64(%rbp), %rdx
	leaq	1(%rdx), %rsi
	movq	%rsi, -64(%rbp)
	movzbl	(%rdx), %edx
	movslq	%edx, %rdx
	xorl	%esi, %esi
	subq	%rdx, %rsi
	movb	(%rcx,%rsi), %cl
	movb	%cl, -41(%rbp)
	movzbl	-41(%rbp), %ecx
	addl	-52(%rbp), %ecx
	movl	%ecx, -52(%rbp)
	movzbl	-41(%rbp), %ecx
	shll	$2, %ecx
	addl	-48(%rbp), %ecx
	movl	%ecx, -48(%rbp)
	movzbl	-41(%rbp), %ecx
	shll	$1, %ecx
	addl	-84(%rbp), %ecx
	movl	%ecx, -84(%rbp)
	movq	-80(%rbp), %rcx
	movq	-64(%rbp), %rdx
	movzbl	(%rdx), %edx
	movslq	%edx, %rdx
	xorl	%esi, %esi
	subq	%rdx, %rsi
	movb	(%rcx,%rsi), %cl
	movb	%cl, -41(%rbp)
	movzbl	-41(%rbp), %ecx
	shll	$2, %ecx
	addl	-52(%rbp), %ecx
	movl	%ecx, -52(%rbp)
	movzbl	-41(%rbp), %ecx
	shll	$2, %ecx
	addl	-48(%rbp), %ecx
	movl	%ecx, -48(%rbp)
	movzbl	-41(%rbp), %ecx
	shll	$2, %ecx
	addl	-84(%rbp), %ecx
	movl	%ecx, -84(%rbp)
	movl	-88(%rbp), %ecx
	subl	$3, %ecx
	movq	-64(%rbp), %rdx
	movslq	%ecx, %rcx
	addq	%rdx, %rcx
	movq	%rcx, -64(%rbp)
	movq	-80(%rbp), %rcx
	movq	-64(%rbp), %rdx
	leaq	1(%rdx), %rsi
	movq	%rsi, -64(%rbp)
	movzbl	(%rdx), %edx
	movslq	%edx, %rdx
	xorl	%esi, %esi
	subq	%rdx, %rsi
	movb	(%rcx,%rsi), %cl
	movb	%cl, -41(%rbp)
	movzbl	-41(%rbp), %ecx
	addl	-52(%rbp), %ecx
	movl	%ecx, -52(%rbp)
	movzbl	-41(%rbp), %ecx
	imull	$9, %ecx, %ecx
	addl	-48(%rbp), %ecx
	movl	%ecx, -48(%rbp)
	movzbl	-41(%rbp), %ecx
	imull	$3, %ecx, %ecx
	movl	-84(%rbp), %edx
	subl	%ecx, %edx
	movl	%edx, -84(%rbp)
	movq	-80(%rbp), %rcx
	movq	-64(%rbp), %rdx
	leaq	1(%rdx), %rsi
	movq	%rsi, -64(%rbp)
	movzbl	(%rdx), %edx
	movslq	%edx, %rdx
	xorl	%esi, %esi
	subq	%rdx, %rsi
	movb	(%rcx,%rsi), %cl
	movb	%cl, -41(%rbp)
	movzbl	-41(%rbp), %ecx
	imull	$9, %ecx, %ecx
	addl	-48(%rbp), %ecx
	movl	%ecx, -48(%rbp)
	movq	-80(%rbp), %rcx
	movq	-64(%rbp), %rdx
	movzbl	(%rdx), %edx
	movslq	%edx, %rdx
	subq	%rdx, %rax
	movb	(%rcx,%rax), %al
	movb	%al, -41(%rbp)
	movzbl	-41(%rbp), %eax
	addl	-52(%rbp), %eax
	movl	%eax, -52(%rbp)
	movzbl	-41(%rbp), %eax
	imull	$9, %eax, %eax
	addl	-48(%rbp), %eax
	movl	%eax, -48(%rbp)
	movzbl	-41(%rbp), %eax
	imull	$3, %eax, %eax
	addl	-84(%rbp), %eax
	movl	%eax, -84(%rbp)
	cmpl	$0, -48(%rbp)
	jne	.LBB13_46
# BB#45:                                #   in Loop: Header=BB13_14 Depth=2
	movl	$1769518, %edi          # imm = 0x1B002E
	callq	enqueue_signature
	movss	.LCPI13_1(%rip), %xmm0  # xmm0 = mem[0],zero,zero,zero
	movss	%xmm0, -108(%rbp)
	jmp	.LBB13_47
.LBB13_46:                              #   in Loop: Header=BB13_14 Depth=2
	movl	$1769519, %edi          # imm = 0x1B002F
	callq	enqueue_signature
	cvtsi2ssl	-52(%rbp), %xmm0
	cvtsi2ssl	-48(%rbp), %xmm1
	divss	%xmm1, %xmm0
	movss	%xmm0, -108(%rbp)
.LBB13_47:                              #   in Loop: Header=BB13_14 Depth=2
	movl	$1769520, %edi          # imm = 0x1B0030
	callq	enqueue_signature
	movsd	.LCPI13_2(%rip), %xmm0  # xmm0 = mem[0],zero
	cvtss2sd	-108(%rbp), %xmm1
	ucomisd	%xmm1, %xmm0
	jbe	.LBB13_49
# BB#48:                                #   in Loop: Header=BB13_14 Depth=2
	movl	$1769521, %edi          # imm = 0x1B0031
	callq	enqueue_signature
	movl	$0, -104(%rbp)
	movl	$1, -100(%rbp)
	jmp	.LBB13_56
.LBB13_49:                              #   in Loop: Header=BB13_14 Depth=2
	movl	$1769522, %edi          # imm = 0x1B0032
	callq	enqueue_signature
	movsd	.LCPI13_3(%rip), %xmm0  # xmm0 = mem[0],zero
	cvtss2sd	-108(%rbp), %xmm1
	ucomisd	%xmm0, %xmm1
	jbe	.LBB13_51
# BB#50:                                #   in Loop: Header=BB13_14 Depth=2
	movl	$1769523, %edi          # imm = 0x1B0033
	callq	enqueue_signature
	movl	$1, -104(%rbp)
	movl	$0, -100(%rbp)
	jmp	.LBB13_55
.LBB13_51:                              #   in Loop: Header=BB13_14 Depth=2
	movl	$1769524, %edi          # imm = 0x1B0034
	callq	enqueue_signature
	cmpl	$0, -84(%rbp)
	jle	.LBB13_53
# BB#52:                                #   in Loop: Header=BB13_14 Depth=2
	movl	$1769525, %edi          # imm = 0x1B0035
	callq	enqueue_signature
	movl	$-1, -104(%rbp)
	movl	$1, -100(%rbp)
	jmp	.LBB13_54
.LBB13_53:                              #   in Loop: Header=BB13_14 Depth=2
	movl	$1769526, %edi          # imm = 0x1B0036
	callq	enqueue_signature
	movl	$1, -104(%rbp)
	movl	$1, -100(%rbp)
.LBB13_54:                              #   in Loop: Header=BB13_14 Depth=2
	movl	$1769527, %edi          # imm = 0x1B0037
	callq	enqueue_signature
.LBB13_55:                              #   in Loop: Header=BB13_14 Depth=2
	movl	$1769528, %edi          # imm = 0x1B0038
	callq	enqueue_signature
.LBB13_56:                              #   in Loop: Header=BB13_14 Depth=2
	movl	$1769529, %edi          # imm = 0x1B0039
	callq	enqueue_signature
	movl	-112(%rbp), %eax
	movq	-120(%rbp), %rcx
	movl	-96(%rbp), %edx
	addl	-104(%rbp), %edx
	imull	-88(%rbp), %edx
	addl	-92(%rbp), %edx
	addl	-100(%rbp), %edx
	movslq	%edx, %rdx
	cmpl	(%rcx,%rdx,4), %eax
	jle	.LBB13_61
# BB#57:                                #   in Loop: Header=BB13_14 Depth=2
	movl	$1769530, %edi          # imm = 0x1B003A
	callq	enqueue_signature
	movl	-112(%rbp), %eax
	movq	-120(%rbp), %rcx
	movl	-96(%rbp), %edx
	subl	-104(%rbp), %edx
	imull	-88(%rbp), %edx
	addl	-92(%rbp), %edx
	subl	-100(%rbp), %edx
	movslq	%edx, %rdx
	cmpl	(%rcx,%rdx,4), %eax
	jl	.LBB13_61
# BB#58:                                #   in Loop: Header=BB13_14 Depth=2
	movl	$1769531, %edi          # imm = 0x1B003B
	callq	enqueue_signature
	movl	-112(%rbp), %eax
	movq	-120(%rbp), %rcx
	movl	-96(%rbp), %edx
	movl	-104(%rbp), %esi
	shll	$1, %esi
	addl	%edx, %esi
	imull	-88(%rbp), %esi
	addl	-92(%rbp), %esi
	movl	-100(%rbp), %edx
	shll	$1, %edx
	addl	%esi, %edx
	movslq	%edx, %rdx
	cmpl	(%rcx,%rdx,4), %eax
	jle	.LBB13_61
# BB#59:                                #   in Loop: Header=BB13_14 Depth=2
	movl	$1769532, %edi          # imm = 0x1B003C
	callq	enqueue_signature
	movl	-112(%rbp), %eax
	movq	-120(%rbp), %rcx
	movl	-96(%rbp), %edx
	movl	-104(%rbp), %esi
	shll	$1, %esi
	subl	%esi, %edx
	imull	-88(%rbp), %edx
	addl	-92(%rbp), %edx
	movl	-100(%rbp), %esi
	shll	$1, %esi
	subl	%esi, %edx
	movslq	%edx, %rdx
	cmpl	(%rcx,%rdx,4), %eax
	jl	.LBB13_61
# BB#60:                                #   in Loop: Header=BB13_14 Depth=2
	movl	$1769533, %edi          # imm = 0x1B003D
	callq	enqueue_signature
	movq	-160(%rbp), %rax
	movl	-96(%rbp), %ecx
	imull	-88(%rbp), %ecx
	addl	-92(%rbp), %ecx
	movslq	%ecx, %rcx
	movb	$2, (%rax,%rcx)
.LBB13_61:                              #   in Loop: Header=BB13_14 Depth=2
	movl	$1769534, %edi          # imm = 0x1B003E
	callq	enqueue_signature
.LBB13_62:                              #   in Loop: Header=BB13_14 Depth=2
	movl	$1769535, %edi          # imm = 0x1B003F
	callq	enqueue_signature
.LBB13_63:                              #   in Loop: Header=BB13_14 Depth=2
	movl	$1769536, %edi          # imm = 0x1B0040
	callq	enqueue_signature
# BB#64:                                #   in Loop: Header=BB13_14 Depth=2
	movl	$1769537, %edi          # imm = 0x1B0041
	callq	enqueue_signature
	movl	-92(%rbp), %eax
	addl	$1, %eax
	movl	%eax, -92(%rbp)
	jmp	.LBB13_14
.LBB13_65:                              #   in Loop: Header=BB13_12 Depth=1
	movl	$1769538, %edi          # imm = 0x1B0042
	callq	enqueue_signature
# BB#66:                                #   in Loop: Header=BB13_12 Depth=1
	movl	$1769539, %edi          # imm = 0x1B0043
	callq	enqueue_signature
	movl	-96(%rbp), %eax
	addl	$1, %eax
	movl	%eax, -96(%rbp)
	jmp	.LBB13_12
.LBB13_67:
	movl	$1769540, %edi          # imm = 0x1B0044
	callq	enqueue_signature_with_return
	movl	-164(%rbp), %eax
	addq	$136, %rsp
	popq	%rbx
	popq	%r12
	popq	%r13
	popq	%r14
	popq	%r15
	popq	%rbp
	retq
.Lfunc_end13:
	.size	susan_edges, .Lfunc_end13-susan_edges
	.cfi_endproc
                                        # -- End function
	.section	.rodata.cst8,"aM",@progbits,8
	.p2align	3               # -- Begin function susan_edges_small
.LCPI14_0:
	.quad	4600877379321698714     # double 0.40000000000000002
.LCPI14_2:
	.quad	4602678819172646912     # double 0.5
.LCPI14_3:
	.quad	4611686018427387904     # double 2
	.section	.rodata.cst4,"aM",@progbits,4
	.p2align	2
.LCPI14_1:
	.long	1232348160              # float 1.0E+6
	.text
	.globl	susan_edges_small
	.p2align	4, 0x90
	.type	susan_edges_small,@function
susan_edges_small:                      # @susan_edges_small
	.cfi_startproc
# BB#0:
	pushq	%rbp
.Lcfi95:
	.cfi_def_cfa_offset 16
.Lcfi96:
	.cfi_offset %rbp, -16
	movq	%rsp, %rbp
.Lcfi97:
	.cfi_def_cfa_register %rbp
	pushq	%r15
	pushq	%r14
	pushq	%r13
	pushq	%r12
	pushq	%rbx
	subq	$136, %rsp
.Lcfi98:
	.cfi_offset %rbx, -56
.Lcfi99:
	.cfi_offset %r12, -48
.Lcfi100:
	.cfi_offset %r13, -40
.Lcfi101:
	.cfi_offset %r14, -32
.Lcfi102:
	.cfi_offset %r15, -24
	movl	%r9d, -144(%rbp)        # 4-byte Spill
	movl	%r8d, %r15d
	movq	%rcx, %r12
	movq	%rdx, %r13
	movq	%rsi, %rbx
	movq	%rdi, %r14
	movl	16(%rbp), %eax
	movl	$1900545, %edi          # imm = 0x1D0001
	callq	enqueue_signature
	movq	%r14, -136(%rbp)
	movq	%rbx, -120(%rbp)
	movq	%r13, -160(%rbp)
	movq	%r12, -152(%rbp)
	movl	%r15d, -112(%rbp)
	movl	-144(%rbp), %eax        # 4-byte Reload
	movl	%eax, -68(%rbp)
	movq	-120(%rbp), %rdi
	movl	-68(%rbp), %eax
	imull	16(%rbp), %eax
	movslq	%eax, %rdx
	shlq	$2, %rdx
	xorl	%esi, %esi
	callq	memset
# BB#1:
	movl	$1900546, %edi          # imm = 0x1D0002
	callq	enqueue_signature
	movl	$730, -112(%rbp)        # imm = 0x2DA
	movl	$1, -80(%rbp)
.LBB14_2:                               # =>This Loop Header: Depth=1
                                        #     Child Loop BB14_4 Depth 2
	movl	$1900547, %edi          # imm = 0x1D0003
	callq	enqueue_signature
	movl	-80(%rbp), %eax
	movl	16(%rbp), %ecx
	subl	$1, %ecx
	cmpl	%ecx, %eax
	jge	.LBB14_11
# BB#3:                                 #   in Loop: Header=BB14_2 Depth=1
	movl	$1900548, %edi          # imm = 0x1D0004
	callq	enqueue_signature
	movl	$1, -76(%rbp)
.LBB14_4:                               #   Parent Loop BB14_2 Depth=1
                                        # =>  This Inner Loop Header: Depth=2
	movl	$1900549, %edi          # imm = 0x1D0005
	callq	enqueue_signature
	movl	-76(%rbp), %eax
	movl	-68(%rbp), %ecx
	subl	$1, %ecx
	cmpl	%ecx, %eax
	jge	.LBB14_9
# BB#5:                                 #   in Loop: Header=BB14_4 Depth=2
	movl	$1900550, %edi          # imm = 0x1D0006
	callq	enqueue_signature
	xorl	%eax, %eax
	movl	$100, -72(%rbp)
	movq	-136(%rbp), %rcx
	movl	-80(%rbp), %edx
	subl	$1, %edx
	imull	-68(%rbp), %edx
	movslq	%edx, %rdx
	addq	%rcx, %rdx
	movslq	-76(%rbp), %rcx
	addq	%rdx, %rcx
	addq	$-1, %rcx
	movq	%rcx, -64(%rbp)
	movq	-152(%rbp), %rcx
	movq	-136(%rbp), %rdx
	movl	-80(%rbp), %esi
	imull	-68(%rbp), %esi
	addl	-76(%rbp), %esi
	movslq	%esi, %rsi
	movzbl	(%rdx,%rsi), %edx
	movslq	%edx, %rdx
	addq	%rcx, %rdx
	movq	%rdx, -88(%rbp)
	movq	-88(%rbp), %rcx
	movq	-64(%rbp), %rdx
	leaq	1(%rdx), %rsi
	movq	%rsi, -64(%rbp)
	movzbl	(%rdx), %edx
	movslq	%edx, %rdx
	xorl	%esi, %esi
	subq	%rdx, %rsi
	movzbl	(%rcx,%rsi), %ecx
	addl	-72(%rbp), %ecx
	movl	%ecx, -72(%rbp)
	movq	-88(%rbp), %rcx
	movq	-64(%rbp), %rdx
	leaq	1(%rdx), %rsi
	movq	%rsi, -64(%rbp)
	movzbl	(%rdx), %edx
	movslq	%edx, %rdx
	xorl	%esi, %esi
	subq	%rdx, %rsi
	movzbl	(%rcx,%rsi), %ecx
	addl	-72(%rbp), %ecx
	movl	%ecx, -72(%rbp)
	movq	-88(%rbp), %rcx
	movq	-64(%rbp), %rdx
	movzbl	(%rdx), %edx
	movslq	%edx, %rdx
	xorl	%esi, %esi
	subq	%rdx, %rsi
	movzbl	(%rcx,%rsi), %ecx
	addl	-72(%rbp), %ecx
	movl	%ecx, -72(%rbp)
	movl	-68(%rbp), %ecx
	subl	$2, %ecx
	movq	-64(%rbp), %rdx
	movslq	%ecx, %rcx
	addq	%rdx, %rcx
	movq	%rcx, -64(%rbp)
	movq	-88(%rbp), %rcx
	movq	-64(%rbp), %rdx
	movzbl	(%rdx), %edx
	movslq	%edx, %rdx
	xorl	%esi, %esi
	subq	%rdx, %rsi
	movzbl	(%rcx,%rsi), %ecx
	addl	-72(%rbp), %ecx
	movl	%ecx, -72(%rbp)
	movq	-64(%rbp), %rcx
	addq	$2, %rcx
	movq	%rcx, -64(%rbp)
	movq	-88(%rbp), %rcx
	movq	-64(%rbp), %rdx
	movzbl	(%rdx), %edx
	movslq	%edx, %rdx
	xorl	%esi, %esi
	subq	%rdx, %rsi
	movzbl	(%rcx,%rsi), %ecx
	addl	-72(%rbp), %ecx
	movl	%ecx, -72(%rbp)
	movl	-68(%rbp), %ecx
	subl	$2, %ecx
	movq	-64(%rbp), %rdx
	movslq	%ecx, %rcx
	addq	%rdx, %rcx
	movq	%rcx, -64(%rbp)
	movq	-88(%rbp), %rcx
	movq	-64(%rbp), %rdx
	leaq	1(%rdx), %rsi
	movq	%rsi, -64(%rbp)
	movzbl	(%rdx), %edx
	movslq	%edx, %rdx
	xorl	%esi, %esi
	subq	%rdx, %rsi
	movzbl	(%rcx,%rsi), %ecx
	addl	-72(%rbp), %ecx
	movl	%ecx, -72(%rbp)
	movq	-88(%rbp), %rcx
	movq	-64(%rbp), %rdx
	leaq	1(%rdx), %rsi
	movq	%rsi, -64(%rbp)
	movzbl	(%rdx), %edx
	movslq	%edx, %rdx
	xorl	%esi, %esi
	subq	%rdx, %rsi
	movzbl	(%rcx,%rsi), %ecx
	addl	-72(%rbp), %ecx
	movl	%ecx, -72(%rbp)
	movq	-88(%rbp), %rcx
	movq	-64(%rbp), %rdx
	movzbl	(%rdx), %edx
	movslq	%edx, %rdx
	subq	%rdx, %rax
	movzbl	(%rcx,%rax), %eax
	addl	-72(%rbp), %eax
	movl	%eax, -72(%rbp)
	movl	-72(%rbp), %eax
	cmpl	-112(%rbp), %eax
	jg	.LBB14_7
# BB#6:                                 #   in Loop: Header=BB14_4 Depth=2
	movl	$1900551, %edi          # imm = 0x1D0007
	callq	enqueue_signature
	movl	-112(%rbp), %eax
	subl	-72(%rbp), %eax
	movq	-120(%rbp), %rcx
	movl	-80(%rbp), %edx
	imull	-68(%rbp), %edx
	addl	-76(%rbp), %edx
	movslq	%edx, %rdx
	movl	%eax, (%rcx,%rdx,4)
.LBB14_7:                               #   in Loop: Header=BB14_4 Depth=2
	movl	$1900552, %edi          # imm = 0x1D0008
	callq	enqueue_signature
# BB#8:                                 #   in Loop: Header=BB14_4 Depth=2
	movl	$1900553, %edi          # imm = 0x1D0009
	callq	enqueue_signature
	movl	-76(%rbp), %eax
	addl	$1, %eax
	movl	%eax, -76(%rbp)
	jmp	.LBB14_4
.LBB14_9:                               #   in Loop: Header=BB14_2 Depth=1
	movl	$1900554, %edi          # imm = 0x1D000A
	callq	enqueue_signature
# BB#10:                                #   in Loop: Header=BB14_2 Depth=1
	movl	$1900555, %edi          # imm = 0x1D000B
	callq	enqueue_signature
	movl	-80(%rbp), %eax
	addl	$1, %eax
	movl	%eax, -80(%rbp)
	jmp	.LBB14_2
.LBB14_11:
	movl	$1900556, %edi          # imm = 0x1D000C
	callq	enqueue_signature
	movl	$2, -80(%rbp)
.LBB14_12:                              # =>This Loop Header: Depth=1
                                        #     Child Loop BB14_14 Depth 2
	movl	$1900557, %edi          # imm = 0x1D000D
	callq	enqueue_signature
	movl	-80(%rbp), %eax
	movl	16(%rbp), %ecx
	subl	$2, %ecx
	cmpl	%ecx, %eax
	jge	.LBB14_63
# BB#13:                                #   in Loop: Header=BB14_12 Depth=1
	movl	$1900558, %edi          # imm = 0x1D000E
	callq	enqueue_signature
	movl	$2, -76(%rbp)
.LBB14_14:                              #   Parent Loop BB14_12 Depth=1
                                        # =>  This Inner Loop Header: Depth=2
	movl	$1900559, %edi          # imm = 0x1D000F
	callq	enqueue_signature
	movl	-76(%rbp), %eax
	movl	-68(%rbp), %ecx
	subl	$2, %ecx
	cmpl	%ecx, %eax
	jge	.LBB14_61
# BB#15:                                #   in Loop: Header=BB14_14 Depth=2
	movl	$1900560, %edi          # imm = 0x1D0010
	callq	enqueue_signature
	movq	-120(%rbp), %rax
	movl	-80(%rbp), %ecx
	imull	-68(%rbp), %ecx
	addl	-76(%rbp), %ecx
	movslq	%ecx, %rcx
	cmpl	$0, (%rax,%rcx,4)
	jle	.LBB14_59
# BB#16:                                #   in Loop: Header=BB14_14 Depth=2
	movl	$1900561, %edi          # imm = 0x1D0011
	callq	enqueue_signature
	movq	-120(%rbp), %rax
	movl	-80(%rbp), %ecx
	imull	-68(%rbp), %ecx
	addl	-76(%rbp), %ecx
	movslq	%ecx, %rcx
	movl	(%rax,%rcx,4), %eax
	movl	%eax, -108(%rbp)
	movl	-112(%rbp), %eax
	subl	-108(%rbp), %eax
	movl	%eax, -72(%rbp)
	movq	-152(%rbp), %rax
	movq	-136(%rbp), %rcx
	movl	-80(%rbp), %edx
	imull	-68(%rbp), %edx
	addl	-76(%rbp), %edx
	movslq	%edx, %rdx
	movzbl	(%rcx,%rdx), %ecx
	movslq	%ecx, %rcx
	addq	%rax, %rcx
	movq	%rcx, -88(%rbp)
	cmpl	$250, -72(%rbp)
	jle	.LBB14_40
# BB#17:                                #   in Loop: Header=BB14_14 Depth=2
	movl	$1900562, %edi          # imm = 0x1D0012
	callq	enqueue_signature
	xorl	%eax, %eax
	movq	-136(%rbp), %rcx
	movl	-80(%rbp), %edx
	subl	$1, %edx
	imull	-68(%rbp), %edx
	movslq	%edx, %rdx
	addq	%rcx, %rdx
	movslq	-76(%rbp), %rcx
	addq	%rdx, %rcx
	addq	$-1, %rcx
	movq	%rcx, -64(%rbp)
	movl	$0, -52(%rbp)
	movl	$0, -48(%rbp)
	movq	-88(%rbp), %rcx
	movq	-64(%rbp), %rdx
	leaq	1(%rdx), %rsi
	movq	%rsi, -64(%rbp)
	movzbl	(%rdx), %edx
	movslq	%edx, %rdx
	xorl	%esi, %esi
	subq	%rdx, %rsi
	movb	(%rcx,%rsi), %cl
	movb	%cl, -41(%rbp)
	movzbl	-41(%rbp), %ecx
	movl	-52(%rbp), %edx
	subl	%ecx, %edx
	movl	%edx, -52(%rbp)
	movzbl	-41(%rbp), %ecx
	movl	-48(%rbp), %edx
	subl	%ecx, %edx
	movl	%edx, -48(%rbp)
	movq	-88(%rbp), %rcx
	movq	-64(%rbp), %rdx
	leaq	1(%rdx), %rsi
	movq	%rsi, -64(%rbp)
	movzbl	(%rdx), %edx
	movslq	%edx, %rdx
	xorl	%esi, %esi
	subq	%rdx, %rsi
	movb	(%rcx,%rsi), %cl
	movb	%cl, -41(%rbp)
	movzbl	-41(%rbp), %ecx
	movl	-48(%rbp), %edx
	subl	%ecx, %edx
	movl	%edx, -48(%rbp)
	movq	-88(%rbp), %rcx
	movq	-64(%rbp), %rdx
	movzbl	(%rdx), %edx
	movslq	%edx, %rdx
	xorl	%esi, %esi
	subq	%rdx, %rsi
	movb	(%rcx,%rsi), %cl
	movb	%cl, -41(%rbp)
	movzbl	-41(%rbp), %ecx
	addl	-52(%rbp), %ecx
	movl	%ecx, -52(%rbp)
	movzbl	-41(%rbp), %ecx
	movl	-48(%rbp), %edx
	subl	%ecx, %edx
	movl	%edx, -48(%rbp)
	movl	-68(%rbp), %ecx
	subl	$2, %ecx
	movq	-64(%rbp), %rdx
	movslq	%ecx, %rcx
	addq	%rdx, %rcx
	movq	%rcx, -64(%rbp)
	movq	-88(%rbp), %rcx
	movq	-64(%rbp), %rdx
	movzbl	(%rdx), %edx
	movslq	%edx, %rdx
	xorl	%esi, %esi
	subq	%rdx, %rsi
	movb	(%rcx,%rsi), %cl
	movb	%cl, -41(%rbp)
	movzbl	-41(%rbp), %ecx
	movl	-52(%rbp), %edx
	subl	%ecx, %edx
	movl	%edx, -52(%rbp)
	movq	-64(%rbp), %rcx
	addq	$2, %rcx
	movq	%rcx, -64(%rbp)
	movq	-88(%rbp), %rcx
	movq	-64(%rbp), %rdx
	movzbl	(%rdx), %edx
	movslq	%edx, %rdx
	xorl	%esi, %esi
	subq	%rdx, %rsi
	movb	(%rcx,%rsi), %cl
	movb	%cl, -41(%rbp)
	movzbl	-41(%rbp), %ecx
	addl	-52(%rbp), %ecx
	movl	%ecx, -52(%rbp)
	movl	-68(%rbp), %ecx
	subl	$2, %ecx
	movq	-64(%rbp), %rdx
	movslq	%ecx, %rcx
	addq	%rdx, %rcx
	movq	%rcx, -64(%rbp)
	movq	-88(%rbp), %rcx
	movq	-64(%rbp), %rdx
	leaq	1(%rdx), %rsi
	movq	%rsi, -64(%rbp)
	movzbl	(%rdx), %edx
	movslq	%edx, %rdx
	xorl	%esi, %esi
	subq	%rdx, %rsi
	movb	(%rcx,%rsi), %cl
	movb	%cl, -41(%rbp)
	movzbl	-41(%rbp), %ecx
	movl	-52(%rbp), %edx
	subl	%ecx, %edx
	movl	%edx, -52(%rbp)
	movzbl	-41(%rbp), %ecx
	addl	-48(%rbp), %ecx
	movl	%ecx, -48(%rbp)
	movq	-88(%rbp), %rcx
	movq	-64(%rbp), %rdx
	leaq	1(%rdx), %rsi
	movq	%rsi, -64(%rbp)
	movzbl	(%rdx), %edx
	movslq	%edx, %rdx
	xorl	%esi, %esi
	subq	%rdx, %rsi
	movb	(%rcx,%rsi), %cl
	movb	%cl, -41(%rbp)
	movzbl	-41(%rbp), %ecx
	addl	-48(%rbp), %ecx
	movl	%ecx, -48(%rbp)
	movq	-88(%rbp), %rcx
	movq	-64(%rbp), %rdx
	movzbl	(%rdx), %edx
	movslq	%edx, %rdx
	subq	%rdx, %rax
	movb	(%rcx,%rax), %al
	movb	%al, -41(%rbp)
	movzbl	-41(%rbp), %eax
	addl	-52(%rbp), %eax
	movl	%eax, -52(%rbp)
	movzbl	-41(%rbp), %eax
	addl	-48(%rbp), %eax
	movl	%eax, -48(%rbp)
	movl	-52(%rbp), %eax
	imull	-52(%rbp), %eax
	movl	-48(%rbp), %ecx
	imull	-48(%rbp), %ecx
	addl	%eax, %ecx
	cvtsi2ssl	%ecx, %xmm0
	cvtss2sd	%xmm0, %xmm0
	callq	sqrt
	movsd	%xmm0, -144(%rbp)       # 8-byte Spill
# BB#18:                                #   in Loop: Header=BB14_14 Depth=2
	movl	$1900563, %edi          # imm = 0x1D0013
	callq	enqueue_signature
	movsd	.LCPI14_0(%rip), %xmm0  # xmm0 = mem[0],zero
	movsd	-144(%rbp), %xmm1       # 8-byte Reload
                                        # xmm1 = mem[0],zero
	cvtsd2ss	%xmm1, %xmm1
	movss	%xmm1, -96(%rbp)
	cvtss2sd	-96(%rbp), %xmm1
	cvtsi2ssl	-72(%rbp), %xmm2
	cvtss2sd	%xmm2, %xmm2
	mulsd	%xmm0, %xmm2
	ucomisd	%xmm2, %xmm1
	jbe	.LBB14_38
# BB#19:                                #   in Loop: Header=BB14_14 Depth=2
	movl	$1900564, %edi          # imm = 0x1D0014
	callq	enqueue_signature
	movl	$0, -124(%rbp)
	cmpl	$0, -52(%rbp)
	jne	.LBB14_21
# BB#20:                                #   in Loop: Header=BB14_14 Depth=2
	movl	$1900565, %edi          # imm = 0x1D0015
	callq	enqueue_signature
	movss	.LCPI14_1(%rip), %xmm0  # xmm0 = mem[0],zero,zero,zero
	movss	%xmm0, -96(%rbp)
	jmp	.LBB14_22
.LBB14_21:                              #   in Loop: Header=BB14_14 Depth=2
	movl	$1900566, %edi          # imm = 0x1D0016
	callq	enqueue_signature
	cvtsi2ssl	-48(%rbp), %xmm0
	cvtsi2ssl	-52(%rbp), %xmm1
	divss	%xmm1, %xmm0
	movss	%xmm0, -96(%rbp)
.LBB14_22:                              #   in Loop: Header=BB14_14 Depth=2
	movl	$1900567, %edi          # imm = 0x1D0017
	callq	enqueue_signature
	xorps	%xmm0, %xmm0
	ucomiss	-96(%rbp), %xmm0
	jbe	.LBB14_24
# BB#23:                                #   in Loop: Header=BB14_14 Depth=2
	movl	$1900568, %edi          # imm = 0x1D0018
	callq	enqueue_signature
	movss	-96(%rbp), %xmm0        # xmm0 = mem[0],zero,zero,zero
	movd	%xmm0, %eax
	xorl	$2147483648, %eax       # imm = 0x80000000
	movd	%eax, %xmm0
	movss	%xmm0, -96(%rbp)
	movl	$-1, -92(%rbp)
	jmp	.LBB14_25
.LBB14_24:                              #   in Loop: Header=BB14_14 Depth=2
	movl	$1900569, %edi          # imm = 0x1D0019
	callq	enqueue_signature
	movl	$1, -92(%rbp)
.LBB14_25:                              #   in Loop: Header=BB14_14 Depth=2
	movl	$1900570, %edi          # imm = 0x1D001A
	callq	enqueue_signature
	movsd	.LCPI14_2(%rip), %xmm0  # xmm0 = mem[0],zero
	cvtss2sd	-96(%rbp), %xmm1
	ucomisd	%xmm1, %xmm0
	jbe	.LBB14_27
# BB#26:                                #   in Loop: Header=BB14_14 Depth=2
	movl	$1900571, %edi          # imm = 0x1D001B
	callq	enqueue_signature
	movl	$0, -104(%rbp)
	movl	$1, -100(%rbp)
	jmp	.LBB14_34
.LBB14_27:                              #   in Loop: Header=BB14_14 Depth=2
	movl	$1900572, %edi          # imm = 0x1D001C
	callq	enqueue_signature
	movsd	.LCPI14_3(%rip), %xmm0  # xmm0 = mem[0],zero
	cvtss2sd	-96(%rbp), %xmm1
	ucomisd	%xmm0, %xmm1
	jbe	.LBB14_29
# BB#28:                                #   in Loop: Header=BB14_14 Depth=2
	movl	$1900573, %edi          # imm = 0x1D001D
	callq	enqueue_signature
	movl	$1, -104(%rbp)
	movl	$0, -100(%rbp)
	jmp	.LBB14_33
.LBB14_29:                              #   in Loop: Header=BB14_14 Depth=2
	movl	$1900574, %edi          # imm = 0x1D001E
	callq	enqueue_signature
	cmpl	$0, -92(%rbp)
	jle	.LBB14_31
# BB#30:                                #   in Loop: Header=BB14_14 Depth=2
	movl	$1900575, %edi          # imm = 0x1D001F
	callq	enqueue_signature
	movl	$1, -104(%rbp)
	movl	$1, -100(%rbp)
	jmp	.LBB14_32
.LBB14_31:                              #   in Loop: Header=BB14_14 Depth=2
	movl	$1900576, %edi          # imm = 0x1D0020
	callq	enqueue_signature
	movl	$-1, -104(%rbp)
	movl	$1, -100(%rbp)
.LBB14_32:                              #   in Loop: Header=BB14_14 Depth=2
	movl	$1900577, %edi          # imm = 0x1D0021
	callq	enqueue_signature
.LBB14_33:                              #   in Loop: Header=BB14_14 Depth=2
	movl	$1900578, %edi          # imm = 0x1D0022
	callq	enqueue_signature
.LBB14_34:                              #   in Loop: Header=BB14_14 Depth=2
	movl	$1900579, %edi          # imm = 0x1D0023
	callq	enqueue_signature
	movl	-108(%rbp), %eax
	movq	-120(%rbp), %rcx
	movl	-80(%rbp), %edx
	addl	-104(%rbp), %edx
	imull	-68(%rbp), %edx
	addl	-76(%rbp), %edx
	addl	-100(%rbp), %edx
	movslq	%edx, %rdx
	cmpl	(%rcx,%rdx,4), %eax
	jle	.LBB14_37
# BB#35:                                #   in Loop: Header=BB14_14 Depth=2
	movl	$1900580, %edi          # imm = 0x1D0024
	callq	enqueue_signature
	movl	-108(%rbp), %eax
	movq	-120(%rbp), %rcx
	movl	-80(%rbp), %edx
	subl	-104(%rbp), %edx
	imull	-68(%rbp), %edx
	addl	-76(%rbp), %edx
	subl	-100(%rbp), %edx
	movslq	%edx, %rdx
	cmpl	(%rcx,%rdx,4), %eax
	jl	.LBB14_37
# BB#36:                                #   in Loop: Header=BB14_14 Depth=2
	movl	$1900581, %edi          # imm = 0x1D0025
	callq	enqueue_signature
	movq	-160(%rbp), %rax
	movl	-80(%rbp), %ecx
	imull	-68(%rbp), %ecx
	addl	-76(%rbp), %ecx
	movslq	%ecx, %rcx
	movb	$1, (%rax,%rcx)
.LBB14_37:                              #   in Loop: Header=BB14_14 Depth=2
	movl	$1900582, %edi          # imm = 0x1D0026
	callq	enqueue_signature
	jmp	.LBB14_39
.LBB14_38:                              #   in Loop: Header=BB14_14 Depth=2
	movl	$1900583, %edi          # imm = 0x1D0027
	callq	enqueue_signature
	movl	$1, -124(%rbp)
.LBB14_39:                              #   in Loop: Header=BB14_14 Depth=2
	movl	$1900584, %edi          # imm = 0x1D0028
	callq	enqueue_signature
	jmp	.LBB14_41
.LBB14_40:                              #   in Loop: Header=BB14_14 Depth=2
	movl	$1900585, %edi          # imm = 0x1D0029
	callq	enqueue_signature
	movl	$1, -124(%rbp)
.LBB14_41:                              #   in Loop: Header=BB14_14 Depth=2
	movl	$1900586, %edi          # imm = 0x1D002A
	callq	enqueue_signature
	cmpl	$1, -124(%rbp)
	jne	.LBB14_58
# BB#42:                                #   in Loop: Header=BB14_14 Depth=2
	movl	$1900587, %edi          # imm = 0x1D002B
	callq	enqueue_signature
	xorl	%eax, %eax
	movq	-136(%rbp), %rcx
	movl	-80(%rbp), %edx
	subl	$1, %edx
	imull	-68(%rbp), %edx
	movslq	%edx, %rdx
	addq	%rcx, %rdx
	movslq	-76(%rbp), %rcx
	addq	%rdx, %rcx
	addq	$-1, %rcx
	movq	%rcx, -64(%rbp)
	movl	$0, -52(%rbp)
	movl	$0, -48(%rbp)
	movl	$0, -92(%rbp)
	movq	-88(%rbp), %rcx
	movq	-64(%rbp), %rdx
	leaq	1(%rdx), %rsi
	movq	%rsi, -64(%rbp)
	movzbl	(%rdx), %edx
	movslq	%edx, %rdx
	xorl	%esi, %esi
	subq	%rdx, %rsi
	movb	(%rcx,%rsi), %cl
	movb	%cl, -41(%rbp)
	movzbl	-41(%rbp), %ecx
	addl	-52(%rbp), %ecx
	movl	%ecx, -52(%rbp)
	movzbl	-41(%rbp), %ecx
	addl	-48(%rbp), %ecx
	movl	%ecx, -48(%rbp)
	movzbl	-41(%rbp), %ecx
	addl	-92(%rbp), %ecx
	movl	%ecx, -92(%rbp)
	movq	-88(%rbp), %rcx
	movq	-64(%rbp), %rdx
	leaq	1(%rdx), %rsi
	movq	%rsi, -64(%rbp)
	movzbl	(%rdx), %edx
	movslq	%edx, %rdx
	xorl	%esi, %esi
	subq	%rdx, %rsi
	movb	(%rcx,%rsi), %cl
	movb	%cl, -41(%rbp)
	movzbl	-41(%rbp), %ecx
	addl	-48(%rbp), %ecx
	movl	%ecx, -48(%rbp)
	movq	-88(%rbp), %rcx
	movq	-64(%rbp), %rdx
	movzbl	(%rdx), %edx
	movslq	%edx, %rdx
	xorl	%esi, %esi
	subq	%rdx, %rsi
	movb	(%rcx,%rsi), %cl
	movb	%cl, -41(%rbp)
	movzbl	-41(%rbp), %ecx
	addl	-52(%rbp), %ecx
	movl	%ecx, -52(%rbp)
	movzbl	-41(%rbp), %ecx
	addl	-48(%rbp), %ecx
	movl	%ecx, -48(%rbp)
	movzbl	-41(%rbp), %ecx
	movl	-92(%rbp), %edx
	subl	%ecx, %edx
	movl	%edx, -92(%rbp)
	movl	-68(%rbp), %ecx
	subl	$2, %ecx
	movq	-64(%rbp), %rdx
	movslq	%ecx, %rcx
	addq	%rdx, %rcx
	movq	%rcx, -64(%rbp)
	movq	-88(%rbp), %rcx
	movq	-64(%rbp), %rdx
	movzbl	(%rdx), %edx
	movslq	%edx, %rdx
	xorl	%esi, %esi
	subq	%rdx, %rsi
	movb	(%rcx,%rsi), %cl
	movb	%cl, -41(%rbp)
	movzbl	-41(%rbp), %ecx
	addl	-52(%rbp), %ecx
	movl	%ecx, -52(%rbp)
	movq	-64(%rbp), %rcx
	addq	$2, %rcx
	movq	%rcx, -64(%rbp)
	movq	-88(%rbp), %rcx
	movq	-64(%rbp), %rdx
	movzbl	(%rdx), %edx
	movslq	%edx, %rdx
	xorl	%esi, %esi
	subq	%rdx, %rsi
	movb	(%rcx,%rsi), %cl
	movb	%cl, -41(%rbp)
	movzbl	-41(%rbp), %ecx
	addl	-52(%rbp), %ecx
	movl	%ecx, -52(%rbp)
	movl	-68(%rbp), %ecx
	subl	$2, %ecx
	movq	-64(%rbp), %rdx
	movslq	%ecx, %rcx
	addq	%rdx, %rcx
	movq	%rcx, -64(%rbp)
	movq	-88(%rbp), %rcx
	movq	-64(%rbp), %rdx
	leaq	1(%rdx), %rsi
	movq	%rsi, -64(%rbp)
	movzbl	(%rdx), %edx
	movslq	%edx, %rdx
	xorl	%esi, %esi
	subq	%rdx, %rsi
	movb	(%rcx,%rsi), %cl
	movb	%cl, -41(%rbp)
	movzbl	-41(%rbp), %ecx
	addl	-52(%rbp), %ecx
	movl	%ecx, -52(%rbp)
	movzbl	-41(%rbp), %ecx
	addl	-48(%rbp), %ecx
	movl	%ecx, -48(%rbp)
	movzbl	-41(%rbp), %ecx
	movl	-92(%rbp), %edx
	subl	%ecx, %edx
	movl	%edx, -92(%rbp)
	movq	-88(%rbp), %rcx
	movq	-64(%rbp), %rdx
	leaq	1(%rdx), %rsi
	movq	%rsi, -64(%rbp)
	movzbl	(%rdx), %edx
	movslq	%edx, %rdx
	xorl	%esi, %esi
	subq	%rdx, %rsi
	movb	(%rcx,%rsi), %cl
	movb	%cl, -41(%rbp)
	movzbl	-41(%rbp), %ecx
	addl	-48(%rbp), %ecx
	movl	%ecx, -48(%rbp)
	movq	-88(%rbp), %rcx
	movq	-64(%rbp), %rdx
	movzbl	(%rdx), %edx
	movslq	%edx, %rdx
	subq	%rdx, %rax
	movb	(%rcx,%rax), %al
	movb	%al, -41(%rbp)
	movzbl	-41(%rbp), %eax
	addl	-52(%rbp), %eax
	movl	%eax, -52(%rbp)
	movzbl	-41(%rbp), %eax
	addl	-48(%rbp), %eax
	movl	%eax, -48(%rbp)
	movzbl	-41(%rbp), %eax
	addl	-92(%rbp), %eax
	movl	%eax, -92(%rbp)
	cmpl	$0, -48(%rbp)
	jne	.LBB14_44
# BB#43:                                #   in Loop: Header=BB14_14 Depth=2
	movl	$1900588, %edi          # imm = 0x1D002C
	callq	enqueue_signature
	movss	.LCPI14_1(%rip), %xmm0  # xmm0 = mem[0],zero,zero,zero
	movss	%xmm0, -96(%rbp)
	jmp	.LBB14_45
.LBB14_44:                              #   in Loop: Header=BB14_14 Depth=2
	movl	$1900589, %edi          # imm = 0x1D002D
	callq	enqueue_signature
	cvtsi2ssl	-52(%rbp), %xmm0
	cvtsi2ssl	-48(%rbp), %xmm1
	divss	%xmm1, %xmm0
	movss	%xmm0, -96(%rbp)
.LBB14_45:                              #   in Loop: Header=BB14_14 Depth=2
	movl	$1900590, %edi          # imm = 0x1D002E
	callq	enqueue_signature
	movsd	.LCPI14_2(%rip), %xmm0  # xmm0 = mem[0],zero
	cvtss2sd	-96(%rbp), %xmm1
	ucomisd	%xmm1, %xmm0
	jbe	.LBB14_47
# BB#46:                                #   in Loop: Header=BB14_14 Depth=2
	movl	$1900591, %edi          # imm = 0x1D002F
	callq	enqueue_signature
	movl	$0, -104(%rbp)
	movl	$1, -100(%rbp)
	jmp	.LBB14_54
.LBB14_47:                              #   in Loop: Header=BB14_14 Depth=2
	movl	$1900592, %edi          # imm = 0x1D0030
	callq	enqueue_signature
	movsd	.LCPI14_3(%rip), %xmm0  # xmm0 = mem[0],zero
	cvtss2sd	-96(%rbp), %xmm1
	ucomisd	%xmm0, %xmm1
	jbe	.LBB14_49
# BB#48:                                #   in Loop: Header=BB14_14 Depth=2
	movl	$1900593, %edi          # imm = 0x1D0031
	callq	enqueue_signature
	movl	$1, -104(%rbp)
	movl	$0, -100(%rbp)
	jmp	.LBB14_53
.LBB14_49:                              #   in Loop: Header=BB14_14 Depth=2
	movl	$1900594, %edi          # imm = 0x1D0032
	callq	enqueue_signature
	cmpl	$0, -92(%rbp)
	jle	.LBB14_51
# BB#50:                                #   in Loop: Header=BB14_14 Depth=2
	movl	$1900595, %edi          # imm = 0x1D0033
	callq	enqueue_signature
	movl	$-1, -104(%rbp)
	movl	$1, -100(%rbp)
	jmp	.LBB14_52
.LBB14_51:                              #   in Loop: Header=BB14_14 Depth=2
	movl	$1900596, %edi          # imm = 0x1D0034
	callq	enqueue_signature
	movl	$1, -104(%rbp)
	movl	$1, -100(%rbp)
.LBB14_52:                              #   in Loop: Header=BB14_14 Depth=2
	movl	$1900597, %edi          # imm = 0x1D0035
	callq	enqueue_signature
.LBB14_53:                              #   in Loop: Header=BB14_14 Depth=2
	movl	$1900598, %edi          # imm = 0x1D0036
	callq	enqueue_signature
.LBB14_54:                              #   in Loop: Header=BB14_14 Depth=2
	movl	$1900599, %edi          # imm = 0x1D0037
	callq	enqueue_signature
	movl	-108(%rbp), %eax
	movq	-120(%rbp), %rcx
	movl	-80(%rbp), %edx
	addl	-104(%rbp), %edx
	imull	-68(%rbp), %edx
	addl	-76(%rbp), %edx
	addl	-100(%rbp), %edx
	movslq	%edx, %rdx
	cmpl	(%rcx,%rdx,4), %eax
	jle	.LBB14_57
# BB#55:                                #   in Loop: Header=BB14_14 Depth=2
	movl	$1900600, %edi          # imm = 0x1D0038
	callq	enqueue_signature
	movl	-108(%rbp), %eax
	movq	-120(%rbp), %rcx
	movl	-80(%rbp), %edx
	subl	-104(%rbp), %edx
	imull	-68(%rbp), %edx
	addl	-76(%rbp), %edx
	subl	-100(%rbp), %edx
	movslq	%edx, %rdx
	cmpl	(%rcx,%rdx,4), %eax
	jl	.LBB14_57
# BB#56:                                #   in Loop: Header=BB14_14 Depth=2
	movl	$1900601, %edi          # imm = 0x1D0039
	callq	enqueue_signature
	movq	-160(%rbp), %rax
	movl	-80(%rbp), %ecx
	imull	-68(%rbp), %ecx
	addl	-76(%rbp), %ecx
	movslq	%ecx, %rcx
	movb	$2, (%rax,%rcx)
.LBB14_57:                              #   in Loop: Header=BB14_14 Depth=2
	movl	$1900602, %edi          # imm = 0x1D003A
	callq	enqueue_signature
.LBB14_58:                              #   in Loop: Header=BB14_14 Depth=2
	movl	$1900603, %edi          # imm = 0x1D003B
	callq	enqueue_signature
.LBB14_59:                              #   in Loop: Header=BB14_14 Depth=2
	movl	$1900604, %edi          # imm = 0x1D003C
	callq	enqueue_signature
# BB#60:                                #   in Loop: Header=BB14_14 Depth=2
	movl	$1900605, %edi          # imm = 0x1D003D
	callq	enqueue_signature
	movl	-76(%rbp), %eax
	addl	$1, %eax
	movl	%eax, -76(%rbp)
	jmp	.LBB14_14
.LBB14_61:                              #   in Loop: Header=BB14_12 Depth=1
	movl	$1900606, %edi          # imm = 0x1D003E
	callq	enqueue_signature
# BB#62:                                #   in Loop: Header=BB14_12 Depth=1
	movl	$1900607, %edi          # imm = 0x1D003F
	callq	enqueue_signature
	movl	-80(%rbp), %eax
	addl	$1, %eax
	movl	%eax, -80(%rbp)
	jmp	.LBB14_12
.LBB14_63:
	movl	$1900608, %edi          # imm = 0x1D0040
	callq	enqueue_signature_with_return
	movl	-164(%rbp), %eax
	addq	$136, %rsp
	popq	%rbx
	popq	%r12
	popq	%r13
	popq	%r14
	popq	%r15
	popq	%rbp
	retq
.Lfunc_end14:
	.size	susan_edges_small, .Lfunc_end14-susan_edges_small
	.cfi_endproc
                                        # -- End function
	.globl	corner_draw             # -- Begin function corner_draw
	.p2align	4, 0x90
	.type	corner_draw,@function
corner_draw:                            # @corner_draw
	.cfi_startproc
# BB#0:
	pushq	%rbp
.Lcfi103:
	.cfi_def_cfa_offset 16
.Lcfi104:
	.cfi_offset %rbp, -16
	movq	%rsp, %rbp
.Lcfi105:
	.cfi_def_cfa_register %rbp
	pushq	%r15
	pushq	%r14
	pushq	%r12
	pushq	%rbx
	subq	$48, %rsp
.Lcfi106:
	.cfi_offset %rbx, -48
.Lcfi107:
	.cfi_offset %r12, -40
.Lcfi108:
	.cfi_offset %r14, -32
.Lcfi109:
	.cfi_offset %r15, -24
	movl	%ecx, %r14d
	movl	%edx, %r15d
	movq	%rsi, %r12
	movq	%rdi, %rbx
	movl	$1966081, %edi          # imm = 0x1E0001
	callq	enqueue_signature
	movq	%rbx, -72(%rbp)
	movq	%r12, -56(%rbp)
	movl	%r15d, -48(%rbp)
	movl	%r14d, -60(%rbp)
	movl	$0, -44(%rbp)
.LBB15_1:                               # =>This Inner Loop Header: Depth=1
	movl	$1966082, %edi          # imm = 0x1E0002
	callq	enqueue_signature
	movq	-56(%rbp), %rax
	movslq	-44(%rbp), %rcx
	imulq	$24, %rcx, %rcx
	addq	%rax, %rcx
	cmpl	$7, 8(%rcx)
	je	.LBB15_6
# BB#2:                                 #   in Loop: Header=BB15_1 Depth=1
	movl	$1966083, %edi          # imm = 0x1E0003
	callq	enqueue_signature
	cmpl	$0, -60(%rbp)
	jne	.LBB15_4
# BB#3:                                 #   in Loop: Header=BB15_1 Depth=1
	movl	$1966084, %edi          # imm = 0x1E0004
	callq	enqueue_signature
	movq	-72(%rbp), %rax
	movq	-56(%rbp), %rcx
	movslq	-44(%rbp), %rdx
	imulq	$24, %rdx, %rdx
	addq	%rcx, %rdx
	movl	4(%rdx), %ecx
	subl	$1, %ecx
	imull	-48(%rbp), %ecx
	movslq	%ecx, %rcx
	addq	%rax, %rcx
	movq	-56(%rbp), %rax
	movslq	-44(%rbp), %rdx
	imulq	$24, %rdx, %rdx
	addq	%rax, %rdx
	movslq	(%rdx), %rax
	addq	%rcx, %rax
	addq	$-1, %rax
	movq	%rax, -40(%rbp)
	movq	-40(%rbp), %rax
	leaq	1(%rax), %rcx
	movq	%rcx, -40(%rbp)
	movb	$-1, (%rax)
	movq	-40(%rbp), %rax
	leaq	1(%rax), %rcx
	movq	%rcx, -40(%rbp)
	movb	$-1, (%rax)
	movq	-40(%rbp), %rax
	movb	$-1, (%rax)
	movl	-48(%rbp), %eax
	subl	$2, %eax
	movq	-40(%rbp), %rcx
	cltq
	addq	%rcx, %rax
	movq	%rax, -40(%rbp)
	movq	-40(%rbp), %rax
	leaq	1(%rax), %rcx
	movq	%rcx, -40(%rbp)
	movb	$-1, (%rax)
	movq	-40(%rbp), %rax
	leaq	1(%rax), %rcx
	movq	%rcx, -40(%rbp)
	movb	$0, (%rax)
	movq	-40(%rbp), %rax
	movb	$-1, (%rax)
	movl	-48(%rbp), %eax
	subl	$2, %eax
	movq	-40(%rbp), %rcx
	cltq
	addq	%rcx, %rax
	movq	%rax, -40(%rbp)
	movq	-40(%rbp), %rax
	leaq	1(%rax), %rcx
	movq	%rcx, -40(%rbp)
	movb	$-1, (%rax)
	movq	-40(%rbp), %rax
	leaq	1(%rax), %rcx
	movq	%rcx, -40(%rbp)
	movb	$-1, (%rax)
	movq	-40(%rbp), %rax
	movb	$-1, (%rax)
	movl	-44(%rbp), %eax
	addl	$1, %eax
	movl	%eax, -44(%rbp)
	jmp	.LBB15_5
.LBB15_4:                               #   in Loop: Header=BB15_1 Depth=1
	movl	$1966085, %edi          # imm = 0x1E0005
	callq	enqueue_signature
	movq	-72(%rbp), %rax
	movq	-56(%rbp), %rcx
	movslq	-44(%rbp), %rdx
	imulq	$24, %rdx, %rdx
	addq	%rcx, %rdx
	movl	4(%rdx), %ecx
	imull	-48(%rbp), %ecx
	movslq	%ecx, %rcx
	addq	%rax, %rcx
	movq	-56(%rbp), %rax
	movslq	-44(%rbp), %rdx
	imulq	$24, %rdx, %rdx
	addq	%rax, %rdx
	movslq	(%rdx), %rax
	addq	%rcx, %rax
	movq	%rax, -40(%rbp)
	movq	-40(%rbp), %rax
	movb	$0, (%rax)
	movl	-44(%rbp), %eax
	addl	$1, %eax
	movl	%eax, -44(%rbp)
.LBB15_5:                               #   in Loop: Header=BB15_1 Depth=1
	movl	$1966086, %edi          # imm = 0x1E0006
	callq	enqueue_signature
	jmp	.LBB15_1
.LBB15_6:
	movl	$1966087, %edi          # imm = 0x1E0007
	callq	enqueue_signature_with_return
	movl	-76(%rbp), %eax
	addq	$48, %rsp
	popq	%rbx
	popq	%r12
	popq	%r14
	popq	%r15
	popq	%rbp
	retq
.Lfunc_end15:
	.size	corner_draw, .Lfunc_end15-corner_draw
	.cfi_endproc
                                        # -- End function
	.section	.rodata.cst8,"aM",@progbits,8
	.p2align	3               # -- Begin function susan_corners
.LCPI16_0:
	.quad	4602678819172646912     # double 0.5
	.section	.rodata.cst4,"aM",@progbits,4
	.p2align	2
.LCPI16_1:
	.long	1073741824              # float 2
.LCPI16_2:
	.long	1077936128              # float 3
	.text
	.globl	susan_corners
	.p2align	4, 0x90
	.type	susan_corners,@function
susan_corners:                          # @susan_corners
	.cfi_startproc
# BB#0:
	pushq	%rbp
.Lcfi110:
	.cfi_def_cfa_offset 16
.Lcfi111:
	.cfi_offset %rbp, -16
	movq	%rsp, %rbp
.Lcfi112:
	.cfi_def_cfa_register %rbp
	pushq	%r15
	pushq	%r14
	pushq	%r13
	pushq	%r12
	pushq	%rbx
	subq	$136, %rsp
.Lcfi113:
	.cfi_offset %rbx, -56
.Lcfi114:
	.cfi_offset %r12, -48
.Lcfi115:
	.cfi_offset %r13, -40
.Lcfi116:
	.cfi_offset %r14, -32
.Lcfi117:
	.cfi_offset %r15, -24
	movl	%r9d, -112(%rbp)        # 4-byte Spill
	movq	%r8, %r15
	movl	%ecx, %r12d
	movq	%rdx, %r13
	movq	%rsi, %rbx
	movq	%rdi, %r14
	movl	16(%rbp), %eax
	movl	$2031617, %edi          # imm = 0x1F0001
	callq	enqueue_signature
	movq	%r14, -120(%rbp)
	movq	%rbx, -96(%rbp)
	movq	%r13, -160(%rbp)
	movl	%r12d, -100(%rbp)
	movq	%r15, -128(%rbp)
	movl	-112(%rbp), %eax        # 4-byte Reload
	movl	%eax, -56(%rbp)
	movq	-96(%rbp), %rdi
	movl	-56(%rbp), %eax
	imull	16(%rbp), %eax
	movslq	%eax, %rdx
	shlq	$2, %rdx
	xorl	%esi, %esi
	callq	memset
# BB#1:
	movl	$2031618, %edi          # imm = 0x1F0002
	callq	enqueue_signature
	movl	-56(%rbp), %eax
	imull	16(%rbp), %eax
	movslq	%eax, %rdi
	shlq	$2, %rdi
	callq	malloc
	movq	%rax, %rbx
# BB#2:
	movl	$2031619, %edi          # imm = 0x1F0003
	callq	enqueue_signature
	movq	%rbx, -152(%rbp)
	movl	-56(%rbp), %eax
	imull	16(%rbp), %eax
	movslq	%eax, %rdi
	shlq	$2, %rdi
	callq	malloc
	movq	%rax, %rbx
# BB#3:
	movl	$2031620, %edi          # imm = 0x1F0004
	callq	enqueue_signature
	movq	%rbx, -144(%rbp)
	movl	$5, -72(%rbp)
.LBB16_4:                               # =>This Loop Header: Depth=1
                                        #     Child Loop BB16_6 Depth 2
	movl	$2031621, %edi          # imm = 0x1F0005
	callq	enqueue_signature
	movl	-72(%rbp), %eax
	movl	16(%rbp), %ecx
	subl	$5, %ecx
	cmpl	%ecx, %eax
	jge	.LBB16_78
# BB#5:                                 #   in Loop: Header=BB16_4 Depth=1
	movl	$2031622, %edi          # imm = 0x1F0006
	callq	enqueue_signature
	movl	$5, -68(%rbp)
.LBB16_6:                               #   Parent Loop BB16_4 Depth=1
                                        # =>  This Inner Loop Header: Depth=2
	movl	$2031623, %edi          # imm = 0x1F0007
	callq	enqueue_signature
	movl	-68(%rbp), %eax
	movl	-56(%rbp), %ecx
	subl	$5, %ecx
	cmpl	%ecx, %eax
	jge	.LBB16_76
# BB#7:                                 #   in Loop: Header=BB16_6 Depth=2
	movl	$2031624, %edi          # imm = 0x1F0008
	callq	enqueue_signature
	xorl	%eax, %eax
	movl	$100, -52(%rbp)
	movq	-120(%rbp), %rcx
	movl	-72(%rbp), %edx
	subl	$3, %edx
	imull	-56(%rbp), %edx
	movslq	%edx, %rdx
	addq	%rcx, %rdx
	movslq	-68(%rbp), %rcx
	addq	%rdx, %rcx
	addq	$-1, %rcx
	movq	%rcx, -64(%rbp)
	movq	-160(%rbp), %rcx
	movq	-120(%rbp), %rdx
	movl	-72(%rbp), %esi
	imull	-56(%rbp), %esi
	addl	-68(%rbp), %esi
	movslq	%esi, %rsi
	movzbl	(%rdx,%rsi), %edx
	movslq	%edx, %rdx
	addq	%rcx, %rdx
	movq	%rdx, -88(%rbp)
	movq	-88(%rbp), %rcx
	movq	-64(%rbp), %rdx
	leaq	1(%rdx), %rsi
	movq	%rsi, -64(%rbp)
	movzbl	(%rdx), %edx
	movslq	%edx, %rdx
	xorl	%esi, %esi
	subq	%rdx, %rsi
	movzbl	(%rcx,%rsi), %ecx
	addl	-52(%rbp), %ecx
	movl	%ecx, -52(%rbp)
	movq	-88(%rbp), %rcx
	movq	-64(%rbp), %rdx
	leaq	1(%rdx), %rsi
	movq	%rsi, -64(%rbp)
	movzbl	(%rdx), %edx
	movslq	%edx, %rdx
	xorl	%esi, %esi
	subq	%rdx, %rsi
	movzbl	(%rcx,%rsi), %ecx
	addl	-52(%rbp), %ecx
	movl	%ecx, -52(%rbp)
	movq	-88(%rbp), %rcx
	movq	-64(%rbp), %rdx
	movzbl	(%rdx), %edx
	movslq	%edx, %rdx
	xorl	%esi, %esi
	subq	%rdx, %rsi
	movzbl	(%rcx,%rsi), %ecx
	addl	-52(%rbp), %ecx
	movl	%ecx, -52(%rbp)
	movl	-56(%rbp), %ecx
	subl	$3, %ecx
	movq	-64(%rbp), %rdx
	movslq	%ecx, %rcx
	addq	%rdx, %rcx
	movq	%rcx, -64(%rbp)
	movq	-88(%rbp), %rcx
	movq	-64(%rbp), %rdx
	leaq	1(%rdx), %rsi
	movq	%rsi, -64(%rbp)
	movzbl	(%rdx), %edx
	movslq	%edx, %rdx
	xorl	%esi, %esi
	subq	%rdx, %rsi
	movzbl	(%rcx,%rsi), %ecx
	addl	-52(%rbp), %ecx
	movl	%ecx, -52(%rbp)
	movq	-88(%rbp), %rcx
	movq	-64(%rbp), %rdx
	leaq	1(%rdx), %rsi
	movq	%rsi, -64(%rbp)
	movzbl	(%rdx), %edx
	movslq	%edx, %rdx
	xorl	%esi, %esi
	subq	%rdx, %rsi
	movzbl	(%rcx,%rsi), %ecx
	addl	-52(%rbp), %ecx
	movl	%ecx, -52(%rbp)
	movq	-88(%rbp), %rcx
	movq	-64(%rbp), %rdx
	leaq	1(%rdx), %rsi
	movq	%rsi, -64(%rbp)
	movzbl	(%rdx), %edx
	movslq	%edx, %rdx
	xorl	%esi, %esi
	subq	%rdx, %rsi
	movzbl	(%rcx,%rsi), %ecx
	addl	-52(%rbp), %ecx
	movl	%ecx, -52(%rbp)
	movq	-88(%rbp), %rcx
	movq	-64(%rbp), %rdx
	leaq	1(%rdx), %rsi
	movq	%rsi, -64(%rbp)
	movzbl	(%rdx), %edx
	movslq	%edx, %rdx
	xorl	%esi, %esi
	subq	%rdx, %rsi
	movzbl	(%rcx,%rsi), %ecx
	addl	-52(%rbp), %ecx
	movl	%ecx, -52(%rbp)
	movq	-88(%rbp), %rcx
	movq	-64(%rbp), %rdx
	movzbl	(%rdx), %edx
	movslq	%edx, %rdx
	xorl	%esi, %esi
	subq	%rdx, %rsi
	movzbl	(%rcx,%rsi), %ecx
	addl	-52(%rbp), %ecx
	movl	%ecx, -52(%rbp)
	movl	-56(%rbp), %ecx
	subl	$5, %ecx
	movq	-64(%rbp), %rdx
	movslq	%ecx, %rcx
	addq	%rdx, %rcx
	movq	%rcx, -64(%rbp)
	movq	-88(%rbp), %rcx
	movq	-64(%rbp), %rdx
	leaq	1(%rdx), %rsi
	movq	%rsi, -64(%rbp)
	movzbl	(%rdx), %edx
	movslq	%edx, %rdx
	xorl	%esi, %esi
	subq	%rdx, %rsi
	movzbl	(%rcx,%rsi), %ecx
	addl	-52(%rbp), %ecx
	movl	%ecx, -52(%rbp)
	movq	-88(%rbp), %rcx
	movq	-64(%rbp), %rdx
	leaq	1(%rdx), %rsi
	movq	%rsi, -64(%rbp)
	movzbl	(%rdx), %edx
	movslq	%edx, %rdx
	xorl	%esi, %esi
	subq	%rdx, %rsi
	movzbl	(%rcx,%rsi), %ecx
	addl	-52(%rbp), %ecx
	movl	%ecx, -52(%rbp)
	movq	-88(%rbp), %rcx
	movq	-64(%rbp), %rdx
	leaq	1(%rdx), %rsi
	movq	%rsi, -64(%rbp)
	movzbl	(%rdx), %edx
	movslq	%edx, %rdx
	xorl	%esi, %esi
	subq	%rdx, %rsi
	movzbl	(%rcx,%rsi), %ecx
	addl	-52(%rbp), %ecx
	movl	%ecx, -52(%rbp)
	movq	-88(%rbp), %rcx
	movq	-64(%rbp), %rdx
	leaq	1(%rdx), %rsi
	movq	%rsi, -64(%rbp)
	movzbl	(%rdx), %edx
	movslq	%edx, %rdx
	xorl	%esi, %esi
	subq	%rdx, %rsi
	movzbl	(%rcx,%rsi), %ecx
	addl	-52(%rbp), %ecx
	movl	%ecx, -52(%rbp)
	movq	-88(%rbp), %rcx
	movq	-64(%rbp), %rdx
	leaq	1(%rdx), %rsi
	movq	%rsi, -64(%rbp)
	movzbl	(%rdx), %edx
	movslq	%edx, %rdx
	xorl	%esi, %esi
	subq	%rdx, %rsi
	movzbl	(%rcx,%rsi), %ecx
	addl	-52(%rbp), %ecx
	movl	%ecx, -52(%rbp)
	movq	-88(%rbp), %rcx
	movq	-64(%rbp), %rdx
	leaq	1(%rdx), %rsi
	movq	%rsi, -64(%rbp)
	movzbl	(%rdx), %edx
	movslq	%edx, %rdx
	xorl	%esi, %esi
	subq	%rdx, %rsi
	movzbl	(%rcx,%rsi), %ecx
	addl	-52(%rbp), %ecx
	movl	%ecx, -52(%rbp)
	movq	-88(%rbp), %rcx
	movq	-64(%rbp), %rdx
	movzbl	(%rdx), %edx
	movslq	%edx, %rdx
	xorl	%esi, %esi
	subq	%rdx, %rsi
	movzbl	(%rcx,%rsi), %ecx
	addl	-52(%rbp), %ecx
	movl	%ecx, -52(%rbp)
	movl	-56(%rbp), %ecx
	subl	$6, %ecx
	movq	-64(%rbp), %rdx
	movslq	%ecx, %rcx
	addq	%rdx, %rcx
	movq	%rcx, -64(%rbp)
	movq	-88(%rbp), %rcx
	movq	-64(%rbp), %rdx
	leaq	1(%rdx), %rsi
	movq	%rsi, -64(%rbp)
	movzbl	(%rdx), %edx
	movslq	%edx, %rdx
	xorl	%esi, %esi
	subq	%rdx, %rsi
	movzbl	(%rcx,%rsi), %ecx
	addl	-52(%rbp), %ecx
	movl	%ecx, -52(%rbp)
	movq	-88(%rbp), %rcx
	movq	-64(%rbp), %rdx
	leaq	1(%rdx), %rsi
	movq	%rsi, -64(%rbp)
	movzbl	(%rdx), %edx
	movslq	%edx, %rdx
	xorl	%esi, %esi
	subq	%rdx, %rsi
	movzbl	(%rcx,%rsi), %ecx
	addl	-52(%rbp), %ecx
	movl	%ecx, -52(%rbp)
	movq	-88(%rbp), %rcx
	movq	-64(%rbp), %rdx
	movzbl	(%rdx), %edx
	movslq	%edx, %rdx
	subq	%rdx, %rax
	movzbl	(%rcx,%rax), %eax
	addl	-52(%rbp), %eax
	movl	%eax, -52(%rbp)
	movl	-52(%rbp), %eax
	cmpl	-100(%rbp), %eax
	jge	.LBB16_74
# BB#8:                                 #   in Loop: Header=BB16_6 Depth=2
	movl	$2031625, %edi          # imm = 0x1F0009
	callq	enqueue_signature
	xorl	%eax, %eax
	movq	-64(%rbp), %rcx
	addq	$2, %rcx
	movq	%rcx, -64(%rbp)
	movq	-88(%rbp), %rcx
	movq	-64(%rbp), %rdx
	leaq	1(%rdx), %rsi
	movq	%rsi, -64(%rbp)
	movzbl	(%rdx), %edx
	movslq	%edx, %rdx
	subq	%rdx, %rax
	movzbl	(%rcx,%rax), %eax
	addl	-52(%rbp), %eax
	movl	%eax, -52(%rbp)
	movl	-52(%rbp), %eax
	cmpl	-100(%rbp), %eax
	jge	.LBB16_73
# BB#9:                                 #   in Loop: Header=BB16_6 Depth=2
	movl	$2031626, %edi          # imm = 0x1F000A
	callq	enqueue_signature
	xorl	%eax, %eax
	movq	-88(%rbp), %rcx
	movq	-64(%rbp), %rdx
	leaq	1(%rdx), %rsi
	movq	%rsi, -64(%rbp)
	movzbl	(%rdx), %edx
	movslq	%edx, %rdx
	subq	%rdx, %rax
	movzbl	(%rcx,%rax), %eax
	addl	-52(%rbp), %eax
	movl	%eax, -52(%rbp)
	movl	-52(%rbp), %eax
	cmpl	-100(%rbp), %eax
	jge	.LBB16_72
# BB#10:                                #   in Loop: Header=BB16_6 Depth=2
	movl	$2031627, %edi          # imm = 0x1F000B
	callq	enqueue_signature
	xorl	%eax, %eax
	movq	-88(%rbp), %rcx
	movq	-64(%rbp), %rdx
	movzbl	(%rdx), %edx
	movslq	%edx, %rdx
	subq	%rdx, %rax
	movzbl	(%rcx,%rax), %eax
	addl	-52(%rbp), %eax
	movl	%eax, -52(%rbp)
	movl	-52(%rbp), %eax
	cmpl	-100(%rbp), %eax
	jge	.LBB16_71
# BB#11:                                #   in Loop: Header=BB16_6 Depth=2
	movl	$2031628, %edi          # imm = 0x1F000C
	callq	enqueue_signature
	xorl	%eax, %eax
	movl	-56(%rbp), %ecx
	subl	$6, %ecx
	movq	-64(%rbp), %rdx
	movslq	%ecx, %rcx
	addq	%rdx, %rcx
	movq	%rcx, -64(%rbp)
	movq	-88(%rbp), %rcx
	movq	-64(%rbp), %rdx
	leaq	1(%rdx), %rsi
	movq	%rsi, -64(%rbp)
	movzbl	(%rdx), %edx
	movslq	%edx, %rdx
	subq	%rdx, %rax
	movzbl	(%rcx,%rax), %eax
	addl	-52(%rbp), %eax
	movl	%eax, -52(%rbp)
	movl	-52(%rbp), %eax
	cmpl	-100(%rbp), %eax
	jge	.LBB16_70
# BB#12:                                #   in Loop: Header=BB16_6 Depth=2
	movl	$2031629, %edi          # imm = 0x1F000D
	callq	enqueue_signature
	xorl	%eax, %eax
	movq	-88(%rbp), %rcx
	movq	-64(%rbp), %rdx
	leaq	1(%rdx), %rsi
	movq	%rsi, -64(%rbp)
	movzbl	(%rdx), %edx
	movslq	%edx, %rdx
	subq	%rdx, %rax
	movzbl	(%rcx,%rax), %eax
	addl	-52(%rbp), %eax
	movl	%eax, -52(%rbp)
	movl	-52(%rbp), %eax
	cmpl	-100(%rbp), %eax
	jge	.LBB16_69
# BB#13:                                #   in Loop: Header=BB16_6 Depth=2
	movl	$2031630, %edi          # imm = 0x1F000E
	callq	enqueue_signature
	xorl	%eax, %eax
	movq	-88(%rbp), %rcx
	movq	-64(%rbp), %rdx
	leaq	1(%rdx), %rsi
	movq	%rsi, -64(%rbp)
	movzbl	(%rdx), %edx
	movslq	%edx, %rdx
	subq	%rdx, %rax
	movzbl	(%rcx,%rax), %eax
	addl	-52(%rbp), %eax
	movl	%eax, -52(%rbp)
	movl	-52(%rbp), %eax
	cmpl	-100(%rbp), %eax
	jge	.LBB16_68
# BB#14:                                #   in Loop: Header=BB16_6 Depth=2
	movl	$2031631, %edi          # imm = 0x1F000F
	callq	enqueue_signature
	xorl	%eax, %eax
	movq	-88(%rbp), %rcx
	movq	-64(%rbp), %rdx
	leaq	1(%rdx), %rsi
	movq	%rsi, -64(%rbp)
	movzbl	(%rdx), %edx
	movslq	%edx, %rdx
	subq	%rdx, %rax
	movzbl	(%rcx,%rax), %eax
	addl	-52(%rbp), %eax
	movl	%eax, -52(%rbp)
	movl	-52(%rbp), %eax
	cmpl	-100(%rbp), %eax
	jge	.LBB16_67
# BB#15:                                #   in Loop: Header=BB16_6 Depth=2
	movl	$2031632, %edi          # imm = 0x1F0010
	callq	enqueue_signature
	xorl	%eax, %eax
	movq	-88(%rbp), %rcx
	movq	-64(%rbp), %rdx
	leaq	1(%rdx), %rsi
	movq	%rsi, -64(%rbp)
	movzbl	(%rdx), %edx
	movslq	%edx, %rdx
	subq	%rdx, %rax
	movzbl	(%rcx,%rax), %eax
	addl	-52(%rbp), %eax
	movl	%eax, -52(%rbp)
	movl	-52(%rbp), %eax
	cmpl	-100(%rbp), %eax
	jge	.LBB16_66
# BB#16:                                #   in Loop: Header=BB16_6 Depth=2
	movl	$2031633, %edi          # imm = 0x1F0011
	callq	enqueue_signature
	xorl	%eax, %eax
	movq	-88(%rbp), %rcx
	movq	-64(%rbp), %rdx
	leaq	1(%rdx), %rsi
	movq	%rsi, -64(%rbp)
	movzbl	(%rdx), %edx
	movslq	%edx, %rdx
	subq	%rdx, %rax
	movzbl	(%rcx,%rax), %eax
	addl	-52(%rbp), %eax
	movl	%eax, -52(%rbp)
	movl	-52(%rbp), %eax
	cmpl	-100(%rbp), %eax
	jge	.LBB16_65
# BB#17:                                #   in Loop: Header=BB16_6 Depth=2
	movl	$2031634, %edi          # imm = 0x1F0012
	callq	enqueue_signature
	xorl	%eax, %eax
	movq	-88(%rbp), %rcx
	movq	-64(%rbp), %rdx
	movzbl	(%rdx), %edx
	movslq	%edx, %rdx
	subq	%rdx, %rax
	movzbl	(%rcx,%rax), %eax
	addl	-52(%rbp), %eax
	movl	%eax, -52(%rbp)
	movl	-52(%rbp), %eax
	cmpl	-100(%rbp), %eax
	jge	.LBB16_64
# BB#18:                                #   in Loop: Header=BB16_6 Depth=2
	movl	$2031635, %edi          # imm = 0x1F0013
	callq	enqueue_signature
	xorl	%eax, %eax
	movl	-56(%rbp), %ecx
	subl	$5, %ecx
	movq	-64(%rbp), %rdx
	movslq	%ecx, %rcx
	addq	%rdx, %rcx
	movq	%rcx, -64(%rbp)
	movq	-88(%rbp), %rcx
	movq	-64(%rbp), %rdx
	leaq	1(%rdx), %rsi
	movq	%rsi, -64(%rbp)
	movzbl	(%rdx), %edx
	movslq	%edx, %rdx
	subq	%rdx, %rax
	movzbl	(%rcx,%rax), %eax
	addl	-52(%rbp), %eax
	movl	%eax, -52(%rbp)
	movl	-52(%rbp), %eax
	cmpl	-100(%rbp), %eax
	jge	.LBB16_63
# BB#19:                                #   in Loop: Header=BB16_6 Depth=2
	movl	$2031636, %edi          # imm = 0x1F0014
	callq	enqueue_signature
	xorl	%eax, %eax
	movq	-88(%rbp), %rcx
	movq	-64(%rbp), %rdx
	leaq	1(%rdx), %rsi
	movq	%rsi, -64(%rbp)
	movzbl	(%rdx), %edx
	movslq	%edx, %rdx
	subq	%rdx, %rax
	movzbl	(%rcx,%rax), %eax
	addl	-52(%rbp), %eax
	movl	%eax, -52(%rbp)
	movl	-52(%rbp), %eax
	cmpl	-100(%rbp), %eax
	jge	.LBB16_62
# BB#20:                                #   in Loop: Header=BB16_6 Depth=2
	movl	$2031637, %edi          # imm = 0x1F0015
	callq	enqueue_signature
	xorl	%eax, %eax
	movq	-88(%rbp), %rcx
	movq	-64(%rbp), %rdx
	leaq	1(%rdx), %rsi
	movq	%rsi, -64(%rbp)
	movzbl	(%rdx), %edx
	movslq	%edx, %rdx
	subq	%rdx, %rax
	movzbl	(%rcx,%rax), %eax
	addl	-52(%rbp), %eax
	movl	%eax, -52(%rbp)
	movl	-52(%rbp), %eax
	cmpl	-100(%rbp), %eax
	jge	.LBB16_61
# BB#21:                                #   in Loop: Header=BB16_6 Depth=2
	movl	$2031638, %edi          # imm = 0x1F0016
	callq	enqueue_signature
	xorl	%eax, %eax
	movq	-88(%rbp), %rcx
	movq	-64(%rbp), %rdx
	leaq	1(%rdx), %rsi
	movq	%rsi, -64(%rbp)
	movzbl	(%rdx), %edx
	movslq	%edx, %rdx
	subq	%rdx, %rax
	movzbl	(%rcx,%rax), %eax
	addl	-52(%rbp), %eax
	movl	%eax, -52(%rbp)
	movl	-52(%rbp), %eax
	cmpl	-100(%rbp), %eax
	jge	.LBB16_60
# BB#22:                                #   in Loop: Header=BB16_6 Depth=2
	movl	$2031639, %edi          # imm = 0x1F0017
	callq	enqueue_signature
	xorl	%eax, %eax
	movq	-88(%rbp), %rcx
	movq	-64(%rbp), %rdx
	movzbl	(%rdx), %edx
	movslq	%edx, %rdx
	subq	%rdx, %rax
	movzbl	(%rcx,%rax), %eax
	addl	-52(%rbp), %eax
	movl	%eax, -52(%rbp)
	movl	-52(%rbp), %eax
	cmpl	-100(%rbp), %eax
	jge	.LBB16_59
# BB#23:                                #   in Loop: Header=BB16_6 Depth=2
	movl	$2031640, %edi          # imm = 0x1F0018
	callq	enqueue_signature
	xorl	%eax, %eax
	movl	-56(%rbp), %ecx
	subl	$3, %ecx
	movq	-64(%rbp), %rdx
	movslq	%ecx, %rcx
	addq	%rdx, %rcx
	movq	%rcx, -64(%rbp)
	movq	-88(%rbp), %rcx
	movq	-64(%rbp), %rdx
	leaq	1(%rdx), %rsi
	movq	%rsi, -64(%rbp)
	movzbl	(%rdx), %edx
	movslq	%edx, %rdx
	subq	%rdx, %rax
	movzbl	(%rcx,%rax), %eax
	addl	-52(%rbp), %eax
	movl	%eax, -52(%rbp)
	movl	-52(%rbp), %eax
	cmpl	-100(%rbp), %eax
	jge	.LBB16_58
# BB#24:                                #   in Loop: Header=BB16_6 Depth=2
	movl	$2031641, %edi          # imm = 0x1F0019
	callq	enqueue_signature
	xorl	%eax, %eax
	movq	-88(%rbp), %rcx
	movq	-64(%rbp), %rdx
	leaq	1(%rdx), %rsi
	movq	%rsi, -64(%rbp)
	movzbl	(%rdx), %edx
	movslq	%edx, %rdx
	subq	%rdx, %rax
	movzbl	(%rcx,%rax), %eax
	addl	-52(%rbp), %eax
	movl	%eax, -52(%rbp)
	movl	-52(%rbp), %eax
	cmpl	-100(%rbp), %eax
	jge	.LBB16_57
# BB#25:                                #   in Loop: Header=BB16_6 Depth=2
	movl	$2031642, %edi          # imm = 0x1F001A
	callq	enqueue_signature
	xorl	%eax, %eax
	movq	-88(%rbp), %rcx
	movq	-64(%rbp), %rdx
	movzbl	(%rdx), %edx
	movslq	%edx, %rdx
	subq	%rdx, %rax
	movzbl	(%rcx,%rax), %eax
	addl	-52(%rbp), %eax
	movl	%eax, -52(%rbp)
	movl	-52(%rbp), %eax
	cmpl	-100(%rbp), %eax
	jge	.LBB16_56
# BB#26:                                #   in Loop: Header=BB16_6 Depth=2
	movl	$2031643, %edi          # imm = 0x1F001B
	callq	enqueue_signature
	movl	$2, %ecx
	xorl	%eax, %eax
	movl	$0, -48(%rbp)
	movl	$0, -76(%rbp)
	movq	-120(%rbp), %rdx
	movl	-72(%rbp), %esi
	subl	$3, %esi
	imull	-56(%rbp), %esi
	movslq	%esi, %rsi
	addq	%rdx, %rsi
	movslq	-68(%rbp), %rdx
	addq	%rsi, %rdx
	addq	$-1, %rdx
	movq	%rdx, -64(%rbp)
	movq	-88(%rbp), %rdx
	movq	-64(%rbp), %rsi
	leaq	1(%rsi), %rdi
	movq	%rdi, -64(%rbp)
	movzbl	(%rsi), %esi
	movslq	%esi, %rsi
	xorl	%edi, %edi
	subq	%rsi, %rdi
	movb	(%rdx,%rdi), %dl
	movb	%dl, -41(%rbp)
	movzbl	-41(%rbp), %edx
	movl	-48(%rbp), %esi
	subl	%edx, %esi
	movl	%esi, -48(%rbp)
	movzbl	-41(%rbp), %edx
	imull	$3, %edx, %edx
	movl	-76(%rbp), %esi
	subl	%edx, %esi
	movl	%esi, -76(%rbp)
	movq	-88(%rbp), %rdx
	movq	-64(%rbp), %rsi
	leaq	1(%rsi), %rdi
	movq	%rdi, -64(%rbp)
	movzbl	(%rsi), %esi
	movslq	%esi, %rsi
	xorl	%edi, %edi
	subq	%rsi, %rdi
	movb	(%rdx,%rdi), %dl
	movb	%dl, -41(%rbp)
	movzbl	-41(%rbp), %edx
	imull	$3, %edx, %edx
	movl	-76(%rbp), %esi
	subl	%edx, %esi
	movl	%esi, -76(%rbp)
	movq	-88(%rbp), %rdx
	movq	-64(%rbp), %rsi
	movzbl	(%rsi), %esi
	movslq	%esi, %rsi
	xorl	%edi, %edi
	subq	%rsi, %rdi
	movb	(%rdx,%rdi), %dl
	movb	%dl, -41(%rbp)
	movzbl	-41(%rbp), %edx
	addl	-48(%rbp), %edx
	movl	%edx, -48(%rbp)
	movzbl	-41(%rbp), %edx
	imull	$3, %edx, %edx
	movl	-76(%rbp), %esi
	subl	%edx, %esi
	movl	%esi, -76(%rbp)
	movl	-56(%rbp), %edx
	subl	$3, %edx
	movq	-64(%rbp), %rsi
	movslq	%edx, %rdx
	addq	%rsi, %rdx
	movq	%rdx, -64(%rbp)
	movq	-88(%rbp), %rdx
	movq	-64(%rbp), %rsi
	leaq	1(%rsi), %rdi
	movq	%rdi, -64(%rbp)
	movzbl	(%rsi), %esi
	movslq	%esi, %rsi
	xorl	%edi, %edi
	subq	%rsi, %rdi
	movb	(%rdx,%rdi), %dl
	movb	%dl, -41(%rbp)
	movzbl	-41(%rbp), %edx
	shll	$1, %edx
	movl	-48(%rbp), %esi
	subl	%edx, %esi
	movl	%esi, -48(%rbp)
	movzbl	-41(%rbp), %edx
	shll	$1, %edx
	movl	-76(%rbp), %esi
	subl	%edx, %esi
	movl	%esi, -76(%rbp)
	movq	-88(%rbp), %rdx
	movq	-64(%rbp), %rsi
	leaq	1(%rsi), %rdi
	movq	%rdi, -64(%rbp)
	movzbl	(%rsi), %esi
	movslq	%esi, %rsi
	xorl	%edi, %edi
	subq	%rsi, %rdi
	movb	(%rdx,%rdi), %dl
	movb	%dl, -41(%rbp)
	movzbl	-41(%rbp), %edx
	movl	-48(%rbp), %esi
	subl	%edx, %esi
	movl	%esi, -48(%rbp)
	movzbl	-41(%rbp), %edx
	shll	$1, %edx
	movl	-76(%rbp), %esi
	subl	%edx, %esi
	movl	%esi, -76(%rbp)
	movq	-88(%rbp), %rdx
	movq	-64(%rbp), %rsi
	leaq	1(%rsi), %rdi
	movq	%rdi, -64(%rbp)
	movzbl	(%rsi), %esi
	movslq	%esi, %rsi
	xorl	%edi, %edi
	subq	%rsi, %rdi
	movb	(%rdx,%rdi), %dl
	movb	%dl, -41(%rbp)
	movzbl	-41(%rbp), %edx
	shll	$1, %edx
	movl	-76(%rbp), %esi
	subl	%edx, %esi
	movl	%esi, -76(%rbp)
	movq	-88(%rbp), %rdx
	movq	-64(%rbp), %rsi
	leaq	1(%rsi), %rdi
	movq	%rdi, -64(%rbp)
	movzbl	(%rsi), %esi
	movslq	%esi, %rsi
	xorl	%edi, %edi
	subq	%rsi, %rdi
	movb	(%rdx,%rdi), %dl
	movb	%dl, -41(%rbp)
	movzbl	-41(%rbp), %edx
	addl	-48(%rbp), %edx
	movl	%edx, -48(%rbp)
	movzbl	-41(%rbp), %edx
	shll	$1, %edx
	movl	-76(%rbp), %esi
	subl	%edx, %esi
	movl	%esi, -76(%rbp)
	movq	-88(%rbp), %rdx
	movq	-64(%rbp), %rsi
	movzbl	(%rsi), %esi
	movslq	%esi, %rsi
	xorl	%edi, %edi
	subq	%rsi, %rdi
	movb	(%rdx,%rdi), %dl
	movb	%dl, -41(%rbp)
	movzbl	-41(%rbp), %edx
	shll	$1, %edx
	addl	-48(%rbp), %edx
	movl	%edx, -48(%rbp)
	movzbl	-41(%rbp), %edx
	shll	$1, %edx
	movl	-76(%rbp), %esi
	subl	%edx, %esi
	movl	%esi, -76(%rbp)
	movl	-56(%rbp), %edx
	subl	$5, %edx
	movq	-64(%rbp), %rsi
	movslq	%edx, %rdx
	addq	%rsi, %rdx
	movq	%rdx, -64(%rbp)
	movq	-88(%rbp), %rdx
	movq	-64(%rbp), %rsi
	leaq	1(%rsi), %rdi
	movq	%rdi, -64(%rbp)
	movzbl	(%rsi), %esi
	movslq	%esi, %rsi
	xorl	%edi, %edi
	subq	%rsi, %rdi
	movb	(%rdx,%rdi), %dl
	movb	%dl, -41(%rbp)
	movzbl	-41(%rbp), %edx
	imull	$3, %edx, %edx
	movl	-48(%rbp), %esi
	subl	%edx, %esi
	movl	%esi, -48(%rbp)
	movzbl	-41(%rbp), %edx
	movl	-76(%rbp), %esi
	subl	%edx, %esi
	movl	%esi, -76(%rbp)
	movq	-88(%rbp), %rdx
	movq	-64(%rbp), %rsi
	leaq	1(%rsi), %rdi
	movq	%rdi, -64(%rbp)
	movzbl	(%rsi), %esi
	movslq	%esi, %rsi
	xorl	%edi, %edi
	subq	%rsi, %rdi
	movb	(%rdx,%rdi), %dl
	movb	%dl, -41(%rbp)
	movzbl	-41(%rbp), %edx
	shll	$1, %edx
	movl	-48(%rbp), %esi
	subl	%edx, %esi
	movl	%esi, -48(%rbp)
	movzbl	-41(%rbp), %edx
	movl	-76(%rbp), %esi
	subl	%edx, %esi
	movl	%esi, -76(%rbp)
	movq	-88(%rbp), %rdx
	movq	-64(%rbp), %rsi
	leaq	1(%rsi), %rdi
	movq	%rdi, -64(%rbp)
	movzbl	(%rsi), %esi
	movslq	%esi, %rsi
	xorl	%edi, %edi
	subq	%rsi, %rdi
	movb	(%rdx,%rdi), %dl
	movb	%dl, -41(%rbp)
	movzbl	-41(%rbp), %edx
	movl	-48(%rbp), %esi
	subl	%edx, %esi
	movl	%esi, -48(%rbp)
	movzbl	-41(%rbp), %edx
	movl	-76(%rbp), %esi
	subl	%edx, %esi
	movl	%esi, -76(%rbp)
	movq	-88(%rbp), %rdx
	movq	-64(%rbp), %rsi
	leaq	1(%rsi), %rdi
	movq	%rdi, -64(%rbp)
	movzbl	(%rsi), %esi
	movslq	%esi, %rsi
	xorl	%edi, %edi
	subq	%rsi, %rdi
	movb	(%rdx,%rdi), %dl
	movb	%dl, -41(%rbp)
	movzbl	-41(%rbp), %edx
	movl	-76(%rbp), %esi
	subl	%edx, %esi
	movl	%esi, -76(%rbp)
	movq	-88(%rbp), %rdx
	movq	-64(%rbp), %rsi
	leaq	1(%rsi), %rdi
	movq	%rdi, -64(%rbp)
	movzbl	(%rsi), %esi
	movslq	%esi, %rsi
	xorl	%edi, %edi
	subq	%rsi, %rdi
	movb	(%rdx,%rdi), %dl
	movb	%dl, -41(%rbp)
	movzbl	-41(%rbp), %edx
	addl	-48(%rbp), %edx
	movl	%edx, -48(%rbp)
	movzbl	-41(%rbp), %edx
	movl	-76(%rbp), %esi
	subl	%edx, %esi
	movl	%esi, -76(%rbp)
	movq	-88(%rbp), %rdx
	movq	-64(%rbp), %rsi
	leaq	1(%rsi), %rdi
	movq	%rdi, -64(%rbp)
	movzbl	(%rsi), %esi
	movslq	%esi, %rsi
	xorl	%edi, %edi
	subq	%rsi, %rdi
	movb	(%rdx,%rdi), %dl
	movb	%dl, -41(%rbp)
	movzbl	-41(%rbp), %edx
	shll	$1, %edx
	addl	-48(%rbp), %edx
	movl	%edx, -48(%rbp)
	movzbl	-41(%rbp), %edx
	movl	-76(%rbp), %esi
	subl	%edx, %esi
	movl	%esi, -76(%rbp)
	movq	-88(%rbp), %rdx
	movq	-64(%rbp), %rsi
	movzbl	(%rsi), %esi
	movslq	%esi, %rsi
	xorl	%edi, %edi
	subq	%rsi, %rdi
	movb	(%rdx,%rdi), %dl
	movb	%dl, -41(%rbp)
	movzbl	-41(%rbp), %edx
	imull	$3, %edx, %edx
	addl	-48(%rbp), %edx
	movl	%edx, -48(%rbp)
	movzbl	-41(%rbp), %edx
	movl	-76(%rbp), %esi
	subl	%edx, %esi
	movl	%esi, -76(%rbp)
	movl	-56(%rbp), %edx
	subl	$6, %edx
	movq	-64(%rbp), %rsi
	movslq	%edx, %rdx
	addq	%rsi, %rdx
	movq	%rdx, -64(%rbp)
	movq	-88(%rbp), %rdx
	movq	-64(%rbp), %rsi
	leaq	1(%rsi), %rdi
	movq	%rdi, -64(%rbp)
	movzbl	(%rsi), %esi
	movslq	%esi, %rsi
	xorl	%edi, %edi
	subq	%rsi, %rdi
	movb	(%rdx,%rdi), %dl
	movb	%dl, -41(%rbp)
	movzbl	-41(%rbp), %edx
	imull	$3, %edx, %edx
	movl	-48(%rbp), %esi
	subl	%edx, %esi
	movl	%esi, -48(%rbp)
	movq	-88(%rbp), %rdx
	movq	-64(%rbp), %rsi
	leaq	1(%rsi), %rdi
	movq	%rdi, -64(%rbp)
	movzbl	(%rsi), %esi
	movslq	%esi, %rsi
	xorl	%edi, %edi
	subq	%rsi, %rdi
	movb	(%rdx,%rdi), %dl
	movb	%dl, -41(%rbp)
	movzbl	-41(%rbp), %edx
	shll	$1, %edx
	movl	-48(%rbp), %esi
	subl	%edx, %esi
	movl	%esi, -48(%rbp)
	movq	-88(%rbp), %rdx
	movq	-64(%rbp), %rsi
	movzbl	(%rsi), %esi
	movslq	%esi, %rsi
	xorl	%edi, %edi
	subq	%rsi, %rdi
	movb	(%rdx,%rdi), %dl
	movb	%dl, -41(%rbp)
	movzbl	-41(%rbp), %edx
	movl	-48(%rbp), %esi
	subl	%edx, %esi
	movl	%esi, -48(%rbp)
	movq	-64(%rbp), %rdx
	addq	$2, %rdx
	movq	%rdx, -64(%rbp)
	movq	-88(%rbp), %rdx
	movq	-64(%rbp), %rsi
	leaq	1(%rsi), %rdi
	movq	%rdi, -64(%rbp)
	movzbl	(%rsi), %esi
	movslq	%esi, %rsi
	xorl	%edi, %edi
	subq	%rsi, %rdi
	movb	(%rdx,%rdi), %dl
	movb	%dl, -41(%rbp)
	movzbl	-41(%rbp), %edx
	addl	-48(%rbp), %edx
	movl	%edx, -48(%rbp)
	movq	-88(%rbp), %rdx
	movq	-64(%rbp), %rsi
	leaq	1(%rsi), %rdi
	movq	%rdi, -64(%rbp)
	movzbl	(%rsi), %esi
	movslq	%esi, %rsi
	xorl	%edi, %edi
	subq	%rsi, %rdi
	movb	(%rdx,%rdi), %dl
	movb	%dl, -41(%rbp)
	movzbl	-41(%rbp), %edx
	shll	$1, %edx
	addl	-48(%rbp), %edx
	movl	%edx, -48(%rbp)
	movq	-88(%rbp), %rdx
	movq	-64(%rbp), %rsi
	movzbl	(%rsi), %esi
	movslq	%esi, %rsi
	xorl	%edi, %edi
	subq	%rsi, %rdi
	movb	(%rdx,%rdi), %dl
	movb	%dl, -41(%rbp)
	movzbl	-41(%rbp), %edx
	imull	$3, %edx, %edx
	addl	-48(%rbp), %edx
	movl	%edx, -48(%rbp)
	movl	-56(%rbp), %edx
	subl	$6, %edx
	movq	-64(%rbp), %rsi
	movslq	%edx, %rdx
	addq	%rsi, %rdx
	movq	%rdx, -64(%rbp)
	movq	-88(%rbp), %rdx
	movq	-64(%rbp), %rsi
	leaq	1(%rsi), %rdi
	movq	%rdi, -64(%rbp)
	movzbl	(%rsi), %esi
	movslq	%esi, %rsi
	xorl	%edi, %edi
	subq	%rsi, %rdi
	movb	(%rdx,%rdi), %dl
	movb	%dl, -41(%rbp)
	movzbl	-41(%rbp), %edx
	imull	$3, %edx, %edx
	movl	-48(%rbp), %esi
	subl	%edx, %esi
	movl	%esi, -48(%rbp)
	movzbl	-41(%rbp), %edx
	addl	-76(%rbp), %edx
	movl	%edx, -76(%rbp)
	movq	-88(%rbp), %rdx
	movq	-64(%rbp), %rsi
	leaq	1(%rsi), %rdi
	movq	%rdi, -64(%rbp)
	movzbl	(%rsi), %esi
	movslq	%esi, %rsi
	xorl	%edi, %edi
	subq	%rsi, %rdi
	movb	(%rdx,%rdi), %dl
	movb	%dl, -41(%rbp)
	movzbl	-41(%rbp), %edx
	shll	$1, %edx
	movl	-48(%rbp), %esi
	subl	%edx, %esi
	movl	%esi, -48(%rbp)
	movzbl	-41(%rbp), %edx
	addl	-76(%rbp), %edx
	movl	%edx, -76(%rbp)
	movq	-88(%rbp), %rdx
	movq	-64(%rbp), %rsi
	leaq	1(%rsi), %rdi
	movq	%rdi, -64(%rbp)
	movzbl	(%rsi), %esi
	movslq	%esi, %rsi
	xorl	%edi, %edi
	subq	%rsi, %rdi
	movb	(%rdx,%rdi), %dl
	movb	%dl, -41(%rbp)
	movzbl	-41(%rbp), %edx
	movl	-48(%rbp), %esi
	subl	%edx, %esi
	movl	%esi, -48(%rbp)
	movzbl	-41(%rbp), %edx
	addl	-76(%rbp), %edx
	movl	%edx, -76(%rbp)
	movq	-88(%rbp), %rdx
	movq	-64(%rbp), %rsi
	leaq	1(%rsi), %rdi
	movq	%rdi, -64(%rbp)
	movzbl	(%rsi), %esi
	movslq	%esi, %rsi
	xorl	%edi, %edi
	subq	%rsi, %rdi
	movb	(%rdx,%rdi), %dl
	movb	%dl, -41(%rbp)
	movzbl	-41(%rbp), %edx
	addl	-76(%rbp), %edx
	movl	%edx, -76(%rbp)
	movq	-88(%rbp), %rdx
	movq	-64(%rbp), %rsi
	leaq	1(%rsi), %rdi
	movq	%rdi, -64(%rbp)
	movzbl	(%rsi), %esi
	movslq	%esi, %rsi
	xorl	%edi, %edi
	subq	%rsi, %rdi
	movb	(%rdx,%rdi), %dl
	movb	%dl, -41(%rbp)
	movzbl	-41(%rbp), %edx
	addl	-48(%rbp), %edx
	movl	%edx, -48(%rbp)
	movzbl	-41(%rbp), %edx
	addl	-76(%rbp), %edx
	movl	%edx, -76(%rbp)
	movq	-88(%rbp), %rdx
	movq	-64(%rbp), %rsi
	leaq	1(%rsi), %rdi
	movq	%rdi, -64(%rbp)
	movzbl	(%rsi), %esi
	movslq	%esi, %rsi
	xorl	%edi, %edi
	subq	%rsi, %rdi
	movb	(%rdx,%rdi), %dl
	movb	%dl, -41(%rbp)
	movzbl	-41(%rbp), %edx
	shll	$1, %edx
	addl	-48(%rbp), %edx
	movl	%edx, -48(%rbp)
	movzbl	-41(%rbp), %edx
	addl	-76(%rbp), %edx
	movl	%edx, -76(%rbp)
	movq	-88(%rbp), %rdx
	movq	-64(%rbp), %rsi
	movzbl	(%rsi), %esi
	movslq	%esi, %rsi
	xorl	%edi, %edi
	subq	%rsi, %rdi
	movb	(%rdx,%rdi), %dl
	movb	%dl, -41(%rbp)
	movzbl	-41(%rbp), %edx
	imull	$3, %edx, %edx
	addl	-48(%rbp), %edx
	movl	%edx, -48(%rbp)
	movzbl	-41(%rbp), %edx
	addl	-76(%rbp), %edx
	movl	%edx, -76(%rbp)
	movl	-56(%rbp), %edx
	subl	$5, %edx
	movq	-64(%rbp), %rsi
	movslq	%edx, %rdx
	addq	%rsi, %rdx
	movq	%rdx, -64(%rbp)
	movq	-88(%rbp), %rdx
	movq	-64(%rbp), %rsi
	leaq	1(%rsi), %rdi
	movq	%rdi, -64(%rbp)
	movzbl	(%rsi), %esi
	movslq	%esi, %rsi
	xorl	%edi, %edi
	subq	%rsi, %rdi
	movb	(%rdx,%rdi), %dl
	movb	%dl, -41(%rbp)
	movzbl	-41(%rbp), %edx
	shll	$1, %edx
	movl	-48(%rbp), %esi
	subl	%edx, %esi
	movl	%esi, -48(%rbp)
	movzbl	-41(%rbp), %edx
	shll	$1, %edx
	addl	-76(%rbp), %edx
	movl	%edx, -76(%rbp)
	movq	-88(%rbp), %rdx
	movq	-64(%rbp), %rsi
	leaq	1(%rsi), %rdi
	movq	%rdi, -64(%rbp)
	movzbl	(%rsi), %esi
	movslq	%esi, %rsi
	xorl	%edi, %edi
	subq	%rsi, %rdi
	movb	(%rdx,%rdi), %dl
	movb	%dl, -41(%rbp)
	movzbl	-41(%rbp), %edx
	movl	-48(%rbp), %esi
	subl	%edx, %esi
	movl	%esi, -48(%rbp)
	movzbl	-41(%rbp), %edx
	shll	$1, %edx
	addl	-76(%rbp), %edx
	movl	%edx, -76(%rbp)
	movq	-88(%rbp), %rdx
	movq	-64(%rbp), %rsi
	leaq	1(%rsi), %rdi
	movq	%rdi, -64(%rbp)
	movzbl	(%rsi), %esi
	movslq	%esi, %rsi
	xorl	%edi, %edi
	subq	%rsi, %rdi
	movb	(%rdx,%rdi), %dl
	movb	%dl, -41(%rbp)
	movzbl	-41(%rbp), %edx
	shll	$1, %edx
	addl	-76(%rbp), %edx
	movl	%edx, -76(%rbp)
	movq	-88(%rbp), %rdx
	movq	-64(%rbp), %rsi
	leaq	1(%rsi), %rdi
	movq	%rdi, -64(%rbp)
	movzbl	(%rsi), %esi
	movslq	%esi, %rsi
	xorl	%edi, %edi
	subq	%rsi, %rdi
	movb	(%rdx,%rdi), %dl
	movb	%dl, -41(%rbp)
	movzbl	-41(%rbp), %edx
	addl	-48(%rbp), %edx
	movl	%edx, -48(%rbp)
	movzbl	-41(%rbp), %edx
	shll	$1, %edx
	addl	-76(%rbp), %edx
	movl	%edx, -76(%rbp)
	movq	-88(%rbp), %rdx
	movq	-64(%rbp), %rsi
	movzbl	(%rsi), %esi
	movslq	%esi, %rsi
	xorl	%edi, %edi
	subq	%rsi, %rdi
	movb	(%rdx,%rdi), %dl
	movb	%dl, -41(%rbp)
	movzbl	-41(%rbp), %edx
	shll	$1, %edx
	addl	-48(%rbp), %edx
	movl	%edx, -48(%rbp)
	movzbl	-41(%rbp), %edx
	shll	$1, %edx
	addl	-76(%rbp), %edx
	movl	%edx, -76(%rbp)
	movl	-56(%rbp), %edx
	subl	$3, %edx
	movq	-64(%rbp), %rsi
	movslq	%edx, %rdx
	addq	%rsi, %rdx
	movq	%rdx, -64(%rbp)
	movq	-88(%rbp), %rdx
	movq	-64(%rbp), %rsi
	leaq	1(%rsi), %rdi
	movq	%rdi, -64(%rbp)
	movzbl	(%rsi), %esi
	movslq	%esi, %rsi
	xorl	%edi, %edi
	subq	%rsi, %rdi
	movb	(%rdx,%rdi), %dl
	movb	%dl, -41(%rbp)
	movzbl	-41(%rbp), %edx
	movl	-48(%rbp), %esi
	subl	%edx, %esi
	movl	%esi, -48(%rbp)
	movzbl	-41(%rbp), %edx
	imull	$3, %edx, %edx
	addl	-76(%rbp), %edx
	movl	%edx, -76(%rbp)
	movq	-88(%rbp), %rdx
	movq	-64(%rbp), %rsi
	leaq	1(%rsi), %rdi
	movq	%rdi, -64(%rbp)
	movzbl	(%rsi), %esi
	movslq	%esi, %rsi
	xorl	%edi, %edi
	subq	%rsi, %rdi
	movb	(%rdx,%rdi), %dl
	movb	%dl, -41(%rbp)
	movzbl	-41(%rbp), %edx
	imull	$3, %edx, %edx
	addl	-76(%rbp), %edx
	movl	%edx, -76(%rbp)
	movq	-88(%rbp), %rdx
	movq	-64(%rbp), %rsi
	movzbl	(%rsi), %esi
	movslq	%esi, %rsi
	subq	%rsi, %rax
	movb	(%rdx,%rax), %al
	movb	%al, -41(%rbp)
	movzbl	-41(%rbp), %eax
	addl	-48(%rbp), %eax
	movl	%eax, -48(%rbp)
	movzbl	-41(%rbp), %eax
	imull	$3, %eax, %eax
	addl	-76(%rbp), %eax
	movl	%eax, -76(%rbp)
	movl	-48(%rbp), %eax
	imull	-48(%rbp), %eax
	movl	%eax, -136(%rbp)
	movl	-76(%rbp), %eax
	imull	-76(%rbp), %eax
	movl	%eax, -132(%rbp)
	movl	-136(%rbp), %eax
	addl	-132(%rbp), %eax
	movl	%eax, -108(%rbp)
	movl	-108(%rbp), %esi
	movl	-52(%rbp), %eax
	imull	-52(%rbp), %eax
	cltd
	idivl	%ecx
	cmpl	%eax, %esi
	jle	.LBB16_55
# BB#27:                                #   in Loop: Header=BB16_6 Depth=2
	movl	$2031644, %edi          # imm = 0x1F001C
	callq	enqueue_signature
	movl	-132(%rbp), %eax
	cmpl	-136(%rbp), %eax
	jge	.LBB16_40
# BB#28:                                #   in Loop: Header=BB16_6 Depth=2
	movl	$2031645, %edi          # imm = 0x1F001D
	callq	enqueue_signature
	cvtsi2ssl	-76(%rbp), %xmm0
	movss	%xmm0, -112(%rbp)       # 4-byte Spill
	movl	-48(%rbp), %edi
	callq	abs
	movl	%eax, %ebx
# BB#29:                                #   in Loop: Header=BB16_6 Depth=2
	movl	$2031646, %edi          # imm = 0x1F001E
	callq	enqueue_signature
	cvtsi2ssl	%ebx, %xmm0
	movss	-112(%rbp), %xmm1       # 4-byte Reload
                                        # xmm1 = mem[0],zero,zero,zero
	divss	%xmm0, %xmm1
	movss	%xmm1, -104(%rbp)
	movl	-48(%rbp), %edi
	callq	abs
	movl	%eax, %ebx
# BB#30:                                #   in Loop: Header=BB16_6 Depth=2
	movl	$2031647, %edi          # imm = 0x1F001F
	callq	enqueue_signature
	xorps	%xmm0, %xmm0
	movl	%ebx, %eax
	cltd
	idivl	-48(%rbp)
	movl	%eax, -108(%rbp)
	movq	-88(%rbp), %r14
	movq	-120(%rbp), %r15
	movl	-72(%rbp), %ebx
	ucomiss	-104(%rbp), %xmm0
	jbe	.LBB16_32
# BB#31:                                #   in Loop: Header=BB16_6 Depth=2
	movl	$2031648, %edi          # imm = 0x1F0020
	callq	enqueue_signature
	movsd	.LCPI16_0(%rip), %xmm0  # xmm0 = mem[0],zero
	cvtss2sd	-104(%rbp), %xmm1
	subsd	%xmm0, %xmm1
	cvttsd2si	%xmm1, %r12d
	jmp	.LBB16_33
.LBB16_32:                              #   in Loop: Header=BB16_6 Depth=2
	movl	$2031649, %edi          # imm = 0x1F0021
	callq	enqueue_signature
	movsd	.LCPI16_0(%rip), %xmm0  # xmm0 = mem[0],zero
	cvtss2sd	-104(%rbp), %xmm1
	addsd	%xmm0, %xmm1
	cvttsd2si	%xmm1, %r12d
.LBB16_33:                              #   in Loop: Header=BB16_6 Depth=2
	movl	$2031650, %edi          # imm = 0x1F0022
	callq	enqueue_signature
	xorps	%xmm0, %xmm0
	movss	.LCPI16_1(%rip), %xmm1  # xmm1 = mem[0],zero,zero,zero
	xorl	%eax, %eax
	addl	%r12d, %ebx
	imull	-56(%rbp), %ebx
	addl	-68(%rbp), %ebx
	addl	-108(%rbp), %ebx
	movslq	%ebx, %rcx
	movzbl	(%r15,%rcx), %ecx
	movslq	%ecx, %rcx
	subq	%rcx, %rax
	movzbl	(%r14,%rax), %r12d
	movq	-88(%rbp), %r14
	movq	-120(%rbp), %r15
	movl	-72(%rbp), %ebx
	mulss	-104(%rbp), %xmm1
	ucomiss	%xmm1, %xmm0
	jbe	.LBB16_35
# BB#34:                                #   in Loop: Header=BB16_6 Depth=2
	movl	$2031651, %edi          # imm = 0x1F0023
	callq	enqueue_signature
	movsd	.LCPI16_0(%rip), %xmm0  # xmm0 = mem[0],zero
	movss	.LCPI16_1(%rip), %xmm1  # xmm1 = mem[0],zero,zero,zero
	mulss	-104(%rbp), %xmm1
	cvtss2sd	%xmm1, %xmm1
	subsd	%xmm0, %xmm1
	cvttsd2si	%xmm1, %r13d
	jmp	.LBB16_36
.LBB16_35:                              #   in Loop: Header=BB16_6 Depth=2
	movl	$2031652, %edi          # imm = 0x1F0024
	callq	enqueue_signature
	movsd	.LCPI16_0(%rip), %xmm0  # xmm0 = mem[0],zero
	movss	.LCPI16_1(%rip), %xmm1  # xmm1 = mem[0],zero,zero,zero
	mulss	-104(%rbp), %xmm1
	cvtss2sd	%xmm1, %xmm1
	addsd	%xmm0, %xmm1
	cvttsd2si	%xmm1, %r13d
.LBB16_36:                              #   in Loop: Header=BB16_6 Depth=2
	movl	$2031653, %edi          # imm = 0x1F0025
	callq	enqueue_signature
	xorps	%xmm0, %xmm0
	movss	.LCPI16_2(%rip), %xmm1  # xmm1 = mem[0],zero,zero,zero
	xorl	%eax, %eax
	addl	%r13d, %ebx
	imull	-56(%rbp), %ebx
	addl	-68(%rbp), %ebx
	movl	-108(%rbp), %ecx
	shll	$1, %ecx
	addl	%ebx, %ecx
	movslq	%ecx, %rcx
	movzbl	(%r15,%rcx), %ecx
	movslq	%ecx, %rcx
	subq	%rcx, %rax
	movzbl	(%r14,%rax), %eax
	addl	%eax, %r12d
	movq	-88(%rbp), %r14
	movq	-120(%rbp), %r15
	movl	-72(%rbp), %ebx
	mulss	-104(%rbp), %xmm1
	ucomiss	%xmm1, %xmm0
	jbe	.LBB16_38
# BB#37:                                #   in Loop: Header=BB16_6 Depth=2
	movl	$2031654, %edi          # imm = 0x1F0026
	callq	enqueue_signature
	movsd	.LCPI16_0(%rip), %xmm0  # xmm0 = mem[0],zero
	movss	.LCPI16_2(%rip), %xmm1  # xmm1 = mem[0],zero,zero,zero
	mulss	-104(%rbp), %xmm1
	cvtss2sd	%xmm1, %xmm1
	subsd	%xmm0, %xmm1
	cvttsd2si	%xmm1, %r13d
	jmp	.LBB16_39
.LBB16_38:                              #   in Loop: Header=BB16_6 Depth=2
	movl	$2031655, %edi          # imm = 0x1F0027
	callq	enqueue_signature
	movsd	.LCPI16_0(%rip), %xmm0  # xmm0 = mem[0],zero
	movss	.LCPI16_2(%rip), %xmm1  # xmm1 = mem[0],zero,zero,zero
	mulss	-104(%rbp), %xmm1
	cvtss2sd	%xmm1, %xmm1
	addsd	%xmm0, %xmm1
	cvttsd2si	%xmm1, %r13d
.LBB16_39:                              #   in Loop: Header=BB16_6 Depth=2
	movl	$2031656, %edi          # imm = 0x1F0028
	callq	enqueue_signature
	xorl	%eax, %eax
	addl	%r13d, %ebx
	imull	-56(%rbp), %ebx
	addl	-68(%rbp), %ebx
	imull	$3, -108(%rbp), %ecx
	addl	%ebx, %ecx
	movslq	%ecx, %rcx
	movzbl	(%r15,%rcx), %ecx
	movslq	%ecx, %rcx
	subq	%rcx, %rax
	movzbl	(%r14,%rax), %eax
	addl	%eax, %r12d
	movl	%r12d, -108(%rbp)
	jmp	.LBB16_52
.LBB16_40:                              #   in Loop: Header=BB16_6 Depth=2
	movl	$2031657, %edi          # imm = 0x1F0029
	callq	enqueue_signature
	cvtsi2ssl	-48(%rbp), %xmm0
	movss	%xmm0, -112(%rbp)       # 4-byte Spill
	movl	-76(%rbp), %edi
	callq	abs
	movl	%eax, %ebx
# BB#41:                                #   in Loop: Header=BB16_6 Depth=2
	movl	$2031658, %edi          # imm = 0x1F002A
	callq	enqueue_signature
	cvtsi2ssl	%ebx, %xmm0
	movss	-112(%rbp), %xmm1       # 4-byte Reload
                                        # xmm1 = mem[0],zero,zero,zero
	divss	%xmm0, %xmm1
	movss	%xmm1, -104(%rbp)
	movl	-76(%rbp), %edi
	callq	abs
	movl	%eax, %ebx
# BB#42:                                #   in Loop: Header=BB16_6 Depth=2
	movl	$2031659, %edi          # imm = 0x1F002B
	callq	enqueue_signature
	xorps	%xmm0, %xmm0
	movl	%ebx, %eax
	cltd
	idivl	-76(%rbp)
	movl	%eax, -108(%rbp)
	movq	-88(%rbp), %r14
	movq	-120(%rbp), %r15
	movl	-72(%rbp), %ebx
	addl	-108(%rbp), %ebx
	imull	-56(%rbp), %ebx
	addl	-68(%rbp), %ebx
	ucomiss	-104(%rbp), %xmm0
	jbe	.LBB16_44
# BB#43:                                #   in Loop: Header=BB16_6 Depth=2
	movl	$2031660, %edi          # imm = 0x1F002C
	callq	enqueue_signature
	movsd	.LCPI16_0(%rip), %xmm0  # xmm0 = mem[0],zero
	cvtss2sd	-104(%rbp), %xmm1
	subsd	%xmm0, %xmm1
	cvttsd2si	%xmm1, %r12d
	jmp	.LBB16_45
.LBB16_44:                              #   in Loop: Header=BB16_6 Depth=2
	movl	$2031661, %edi          # imm = 0x1F002D
	callq	enqueue_signature
	movsd	.LCPI16_0(%rip), %xmm0  # xmm0 = mem[0],zero
	cvtss2sd	-104(%rbp), %xmm1
	addsd	%xmm0, %xmm1
	cvttsd2si	%xmm1, %r12d
.LBB16_45:                              #   in Loop: Header=BB16_6 Depth=2
	movl	$2031662, %edi          # imm = 0x1F002E
	callq	enqueue_signature
	xorps	%xmm0, %xmm0
	movss	.LCPI16_1(%rip), %xmm1  # xmm1 = mem[0],zero,zero,zero
	xorl	%eax, %eax
	addl	%r12d, %ebx
	movslq	%ebx, %rcx
	movzbl	(%r15,%rcx), %ecx
	movslq	%ecx, %rcx
	subq	%rcx, %rax
	movzbl	(%r14,%rax), %r12d
	movq	-88(%rbp), %r14
	movq	-120(%rbp), %r15
	movl	-72(%rbp), %eax
	movl	-108(%rbp), %ebx
	shll	$1, %ebx
	addl	%eax, %ebx
	imull	-56(%rbp), %ebx
	addl	-68(%rbp), %ebx
	mulss	-104(%rbp), %xmm1
	ucomiss	%xmm1, %xmm0
	jbe	.LBB16_47
# BB#46:                                #   in Loop: Header=BB16_6 Depth=2
	movl	$2031663, %edi          # imm = 0x1F002F
	callq	enqueue_signature
	movsd	.LCPI16_0(%rip), %xmm0  # xmm0 = mem[0],zero
	movss	.LCPI16_1(%rip), %xmm1  # xmm1 = mem[0],zero,zero,zero
	mulss	-104(%rbp), %xmm1
	cvtss2sd	%xmm1, %xmm1
	subsd	%xmm0, %xmm1
	cvttsd2si	%xmm1, %r13d
	jmp	.LBB16_48
.LBB16_47:                              #   in Loop: Header=BB16_6 Depth=2
	movl	$2031664, %edi          # imm = 0x1F0030
	callq	enqueue_signature
	movsd	.LCPI16_0(%rip), %xmm0  # xmm0 = mem[0],zero
	movss	.LCPI16_1(%rip), %xmm1  # xmm1 = mem[0],zero,zero,zero
	mulss	-104(%rbp), %xmm1
	cvtss2sd	%xmm1, %xmm1
	addsd	%xmm0, %xmm1
	cvttsd2si	%xmm1, %r13d
.LBB16_48:                              #   in Loop: Header=BB16_6 Depth=2
	movl	$2031665, %edi          # imm = 0x1F0031
	callq	enqueue_signature
	xorps	%xmm0, %xmm0
	movss	.LCPI16_2(%rip), %xmm1  # xmm1 = mem[0],zero,zero,zero
	xorl	%eax, %eax
	addl	%r13d, %ebx
	movslq	%ebx, %rcx
	movzbl	(%r15,%rcx), %ecx
	movslq	%ecx, %rcx
	subq	%rcx, %rax
	movzbl	(%r14,%rax), %eax
	addl	%eax, %r12d
	movq	-88(%rbp), %r14
	movq	-120(%rbp), %r15
	movl	-72(%rbp), %eax
	imull	$3, -108(%rbp), %ebx
	addl	%eax, %ebx
	imull	-56(%rbp), %ebx
	addl	-68(%rbp), %ebx
	mulss	-104(%rbp), %xmm1
	ucomiss	%xmm1, %xmm0
	jbe	.LBB16_50
# BB#49:                                #   in Loop: Header=BB16_6 Depth=2
	movl	$2031666, %edi          # imm = 0x1F0032
	callq	enqueue_signature
	movsd	.LCPI16_0(%rip), %xmm0  # xmm0 = mem[0],zero
	movss	.LCPI16_2(%rip), %xmm1  # xmm1 = mem[0],zero,zero,zero
	mulss	-104(%rbp), %xmm1
	cvtss2sd	%xmm1, %xmm1
	subsd	%xmm0, %xmm1
	cvttsd2si	%xmm1, %r13d
	jmp	.LBB16_51
.LBB16_50:                              #   in Loop: Header=BB16_6 Depth=2
	movl	$2031667, %edi          # imm = 0x1F0033
	callq	enqueue_signature
	movsd	.LCPI16_0(%rip), %xmm0  # xmm0 = mem[0],zero
	movss	.LCPI16_2(%rip), %xmm1  # xmm1 = mem[0],zero,zero,zero
	mulss	-104(%rbp), %xmm1
	cvtss2sd	%xmm1, %xmm1
	addsd	%xmm0, %xmm1
	cvttsd2si	%xmm1, %r13d
.LBB16_51:                              #   in Loop: Header=BB16_6 Depth=2
	movl	$2031668, %edi          # imm = 0x1F0034
	callq	enqueue_signature
	xorl	%eax, %eax
	addl	%r13d, %ebx
	movslq	%ebx, %rcx
	movzbl	(%r15,%rcx), %ecx
	movslq	%ecx, %rcx
	subq	%rcx, %rax
	movzbl	(%r14,%rax), %eax
	addl	%eax, %r12d
	movl	%r12d, -108(%rbp)
.LBB16_52:                              #   in Loop: Header=BB16_6 Depth=2
	movl	$2031669, %edi          # imm = 0x1F0035
	callq	enqueue_signature
	cmpl	$290, -108(%rbp)        # imm = 0x122
	jle	.LBB16_54
# BB#53:                                #   in Loop: Header=BB16_6 Depth=2
	movl	$2031670, %edi          # imm = 0x1F0036
	callq	enqueue_signature
	movl	-100(%rbp), %eax
	subl	-52(%rbp), %eax
	movq	-96(%rbp), %rcx
	movl	-72(%rbp), %edx
	imull	-56(%rbp), %edx
	addl	-68(%rbp), %edx
	movslq	%edx, %rdx
	movl	%eax, (%rcx,%rdx,4)
	imull	$51, -48(%rbp), %eax
	cltd
	idivl	-52(%rbp)
	movq	-152(%rbp), %rcx
	movl	-72(%rbp), %edx
	imull	-56(%rbp), %edx
	addl	-68(%rbp), %edx
	movslq	%edx, %rdx
	movl	%eax, (%rcx,%rdx,4)
	imull	$51, -76(%rbp), %eax
	cltd
	idivl	-52(%rbp)
	movq	-144(%rbp), %rcx
	movl	-72(%rbp), %edx
	imull	-56(%rbp), %edx
	addl	-68(%rbp), %edx
	movslq	%edx, %rdx
	movl	%eax, (%rcx,%rdx,4)
.LBB16_54:                              #   in Loop: Header=BB16_6 Depth=2
	movl	$2031671, %edi          # imm = 0x1F0037
	callq	enqueue_signature
.LBB16_55:                              #   in Loop: Header=BB16_6 Depth=2
	movl	$2031672, %edi          # imm = 0x1F0038
	callq	enqueue_signature
.LBB16_56:                              #   in Loop: Header=BB16_6 Depth=2
	movl	$2031673, %edi          # imm = 0x1F0039
	callq	enqueue_signature
.LBB16_57:                              #   in Loop: Header=BB16_6 Depth=2
	movl	$2031674, %edi          # imm = 0x1F003A
	callq	enqueue_signature
.LBB16_58:                              #   in Loop: Header=BB16_6 Depth=2
	movl	$2031675, %edi          # imm = 0x1F003B
	callq	enqueue_signature
.LBB16_59:                              #   in Loop: Header=BB16_6 Depth=2
	movl	$2031676, %edi          # imm = 0x1F003C
	callq	enqueue_signature
.LBB16_60:                              #   in Loop: Header=BB16_6 Depth=2
	movl	$2031677, %edi          # imm = 0x1F003D
	callq	enqueue_signature
.LBB16_61:                              #   in Loop: Header=BB16_6 Depth=2
	movl	$2031678, %edi          # imm = 0x1F003E
	callq	enqueue_signature
.LBB16_62:                              #   in Loop: Header=BB16_6 Depth=2
	movl	$2031679, %edi          # imm = 0x1F003F
	callq	enqueue_signature
.LBB16_63:                              #   in Loop: Header=BB16_6 Depth=2
	movl	$2031680, %edi          # imm = 0x1F0040
	callq	enqueue_signature
.LBB16_64:                              #   in Loop: Header=BB16_6 Depth=2
	movl	$2031681, %edi          # imm = 0x1F0041
	callq	enqueue_signature
.LBB16_65:                              #   in Loop: Header=BB16_6 Depth=2
	movl	$2031682, %edi          # imm = 0x1F0042
	callq	enqueue_signature
.LBB16_66:                              #   in Loop: Header=BB16_6 Depth=2
	movl	$2031683, %edi          # imm = 0x1F0043
	callq	enqueue_signature
.LBB16_67:                              #   in Loop: Header=BB16_6 Depth=2
	movl	$2031684, %edi          # imm = 0x1F0044
	callq	enqueue_signature
.LBB16_68:                              #   in Loop: Header=BB16_6 Depth=2
	movl	$2031685, %edi          # imm = 0x1F0045
	callq	enqueue_signature
.LBB16_69:                              #   in Loop: Header=BB16_6 Depth=2
	movl	$2031686, %edi          # imm = 0x1F0046
	callq	enqueue_signature
.LBB16_70:                              #   in Loop: Header=BB16_6 Depth=2
	movl	$2031687, %edi          # imm = 0x1F0047
	callq	enqueue_signature
.LBB16_71:                              #   in Loop: Header=BB16_6 Depth=2
	movl	$2031688, %edi          # imm = 0x1F0048
	callq	enqueue_signature
.LBB16_72:                              #   in Loop: Header=BB16_6 Depth=2
	movl	$2031689, %edi          # imm = 0x1F0049
	callq	enqueue_signature
.LBB16_73:                              #   in Loop: Header=BB16_6 Depth=2
	movl	$2031690, %edi          # imm = 0x1F004A
	callq	enqueue_signature
.LBB16_74:                              #   in Loop: Header=BB16_6 Depth=2
	movl	$2031691, %edi          # imm = 0x1F004B
	callq	enqueue_signature
# BB#75:                                #   in Loop: Header=BB16_6 Depth=2
	movl	$2031692, %edi          # imm = 0x1F004C
	callq	enqueue_signature
	movl	-68(%rbp), %eax
	addl	$1, %eax
	movl	%eax, -68(%rbp)
	jmp	.LBB16_6
.LBB16_76:                              #   in Loop: Header=BB16_4 Depth=1
	movl	$2031693, %edi          # imm = 0x1F004D
	callq	enqueue_signature
# BB#77:                                #   in Loop: Header=BB16_4 Depth=1
	movl	$2031694, %edi          # imm = 0x1F004E
	callq	enqueue_signature
	movl	-72(%rbp), %eax
	addl	$1, %eax
	movl	%eax, -72(%rbp)
	jmp	.LBB16_4
.LBB16_78:
	movl	$2031695, %edi          # imm = 0x1F004F
	callq	enqueue_signature
	movl	$0, -52(%rbp)
	movl	$5, -72(%rbp)
.LBB16_79:                              # =>This Loop Header: Depth=1
                                        #     Child Loop BB16_81 Depth 2
	movl	$2031696, %edi          # imm = 0x1F0050
	callq	enqueue_signature
	movl	-72(%rbp), %eax
	movl	16(%rbp), %ecx
	subl	$5, %ecx
	cmpl	%ecx, %eax
	jge	.LBB16_139
# BB#80:                                #   in Loop: Header=BB16_79 Depth=1
	movl	$2031697, %edi          # imm = 0x1F0051
	callq	enqueue_signature
	movl	$5, -68(%rbp)
.LBB16_81:                              #   Parent Loop BB16_79 Depth=1
                                        # =>  This Inner Loop Header: Depth=2
	movl	$2031698, %edi          # imm = 0x1F0052
	callq	enqueue_signature
	movl	-68(%rbp), %eax
	movl	-56(%rbp), %ecx
	subl	$5, %ecx
	cmpl	%ecx, %eax
	jge	.LBB16_137
# BB#82:                                #   in Loop: Header=BB16_81 Depth=2
	movl	$2031699, %edi          # imm = 0x1F0053
	callq	enqueue_signature
	movq	-96(%rbp), %rax
	movl	-72(%rbp), %ecx
	imull	-56(%rbp), %ecx
	addl	-68(%rbp), %ecx
	movslq	%ecx, %rcx
	movl	(%rax,%rcx,4), %eax
	movl	%eax, -48(%rbp)
	cmpl	$0, -48(%rbp)
	jle	.LBB16_135
# BB#83:                                #   in Loop: Header=BB16_81 Depth=2
	movl	$2031700, %edi          # imm = 0x1F0054
	callq	enqueue_signature
	movl	-48(%rbp), %eax
	movq	-96(%rbp), %rcx
	movl	-72(%rbp), %edx
	subl	$3, %edx
	imull	-56(%rbp), %edx
	addl	-68(%rbp), %edx
	subl	$3, %edx
	movslq	%edx, %rdx
	cmpl	(%rcx,%rdx,4), %eax
	jle	.LBB16_134
# BB#84:                                #   in Loop: Header=BB16_81 Depth=2
	movl	$2031701, %edi          # imm = 0x1F0055
	callq	enqueue_signature
	movl	-48(%rbp), %eax
	movq	-96(%rbp), %rcx
	movl	-72(%rbp), %edx
	subl	$3, %edx
	imull	-56(%rbp), %edx
	addl	-68(%rbp), %edx
	subl	$2, %edx
	movslq	%edx, %rdx
	cmpl	(%rcx,%rdx,4), %eax
	jle	.LBB16_134
# BB#85:                                #   in Loop: Header=BB16_81 Depth=2
	movl	$2031702, %edi          # imm = 0x1F0056
	callq	enqueue_signature
	movl	-48(%rbp), %eax
	movq	-96(%rbp), %rcx
	movl	-72(%rbp), %edx
	subl	$3, %edx
	imull	-56(%rbp), %edx
	addl	-68(%rbp), %edx
	subl	$1, %edx
	movslq	%edx, %rdx
	cmpl	(%rcx,%rdx,4), %eax
	jle	.LBB16_134
# BB#86:                                #   in Loop: Header=BB16_81 Depth=2
	movl	$2031703, %edi          # imm = 0x1F0057
	callq	enqueue_signature
	movl	-48(%rbp), %eax
	movq	-96(%rbp), %rcx
	movl	-72(%rbp), %edx
	subl	$3, %edx
	imull	-56(%rbp), %edx
	addl	-68(%rbp), %edx
	movslq	%edx, %rdx
	cmpl	(%rcx,%rdx,4), %eax
	jle	.LBB16_134
# BB#87:                                #   in Loop: Header=BB16_81 Depth=2
	movl	$2031704, %edi          # imm = 0x1F0058
	callq	enqueue_signature
	movl	-48(%rbp), %eax
	movq	-96(%rbp), %rcx
	movl	-72(%rbp), %edx
	subl	$3, %edx
	imull	-56(%rbp), %edx
	addl	-68(%rbp), %edx
	addl	$1, %edx
	movslq	%edx, %rdx
	cmpl	(%rcx,%rdx,4), %eax
	jle	.LBB16_134
# BB#88:                                #   in Loop: Header=BB16_81 Depth=2
	movl	$2031705, %edi          # imm = 0x1F0059
	callq	enqueue_signature
	movl	-48(%rbp), %eax
	movq	-96(%rbp), %rcx
	movl	-72(%rbp), %edx
	subl	$3, %edx
	imull	-56(%rbp), %edx
	addl	-68(%rbp), %edx
	addl	$2, %edx
	movslq	%edx, %rdx
	cmpl	(%rcx,%rdx,4), %eax
	jle	.LBB16_134
# BB#89:                                #   in Loop: Header=BB16_81 Depth=2
	movl	$2031706, %edi          # imm = 0x1F005A
	callq	enqueue_signature
	movl	-48(%rbp), %eax
	movq	-96(%rbp), %rcx
	movl	-72(%rbp), %edx
	subl	$3, %edx
	imull	-56(%rbp), %edx
	addl	-68(%rbp), %edx
	addl	$3, %edx
	movslq	%edx, %rdx
	cmpl	(%rcx,%rdx,4), %eax
	jle	.LBB16_134
# BB#90:                                #   in Loop: Header=BB16_81 Depth=2
	movl	$2031707, %edi          # imm = 0x1F005B
	callq	enqueue_signature
	movl	-48(%rbp), %eax
	movq	-96(%rbp), %rcx
	movl	-72(%rbp), %edx
	subl	$2, %edx
	imull	-56(%rbp), %edx
	addl	-68(%rbp), %edx
	subl	$3, %edx
	movslq	%edx, %rdx
	cmpl	(%rcx,%rdx,4), %eax
	jle	.LBB16_134
# BB#91:                                #   in Loop: Header=BB16_81 Depth=2
	movl	$2031708, %edi          # imm = 0x1F005C
	callq	enqueue_signature
	movl	-48(%rbp), %eax
	movq	-96(%rbp), %rcx
	movl	-72(%rbp), %edx
	subl	$2, %edx
	imull	-56(%rbp), %edx
	addl	-68(%rbp), %edx
	subl	$2, %edx
	movslq	%edx, %rdx
	cmpl	(%rcx,%rdx,4), %eax
	jle	.LBB16_134
# BB#92:                                #   in Loop: Header=BB16_81 Depth=2
	movl	$2031709, %edi          # imm = 0x1F005D
	callq	enqueue_signature
	movl	-48(%rbp), %eax
	movq	-96(%rbp), %rcx
	movl	-72(%rbp), %edx
	subl	$2, %edx
	imull	-56(%rbp), %edx
	addl	-68(%rbp), %edx
	subl	$1, %edx
	movslq	%edx, %rdx
	cmpl	(%rcx,%rdx,4), %eax
	jle	.LBB16_134
# BB#93:                                #   in Loop: Header=BB16_81 Depth=2
	movl	$2031710, %edi          # imm = 0x1F005E
	callq	enqueue_signature
	movl	-48(%rbp), %eax
	movq	-96(%rbp), %rcx
	movl	-72(%rbp), %edx
	subl	$2, %edx
	imull	-56(%rbp), %edx
	addl	-68(%rbp), %edx
	movslq	%edx, %rdx
	cmpl	(%rcx,%rdx,4), %eax
	jle	.LBB16_134
# BB#94:                                #   in Loop: Header=BB16_81 Depth=2
	movl	$2031711, %edi          # imm = 0x1F005F
	callq	enqueue_signature
	movl	-48(%rbp), %eax
	movq	-96(%rbp), %rcx
	movl	-72(%rbp), %edx
	subl	$2, %edx
	imull	-56(%rbp), %edx
	addl	-68(%rbp), %edx
	addl	$1, %edx
	movslq	%edx, %rdx
	cmpl	(%rcx,%rdx,4), %eax
	jle	.LBB16_134
# BB#95:                                #   in Loop: Header=BB16_81 Depth=2
	movl	$2031712, %edi          # imm = 0x1F0060
	callq	enqueue_signature
	movl	-48(%rbp), %eax
	movq	-96(%rbp), %rcx
	movl	-72(%rbp), %edx
	subl	$2, %edx
	imull	-56(%rbp), %edx
	addl	-68(%rbp), %edx
	addl	$2, %edx
	movslq	%edx, %rdx
	cmpl	(%rcx,%rdx,4), %eax
	jle	.LBB16_134
# BB#96:                                #   in Loop: Header=BB16_81 Depth=2
	movl	$2031713, %edi          # imm = 0x1F0061
	callq	enqueue_signature
	movl	-48(%rbp), %eax
	movq	-96(%rbp), %rcx
	movl	-72(%rbp), %edx
	subl	$2, %edx
	imull	-56(%rbp), %edx
	addl	-68(%rbp), %edx
	addl	$3, %edx
	movslq	%edx, %rdx
	cmpl	(%rcx,%rdx,4), %eax
	jle	.LBB16_134
# BB#97:                                #   in Loop: Header=BB16_81 Depth=2
	movl	$2031714, %edi          # imm = 0x1F0062
	callq	enqueue_signature
	movl	-48(%rbp), %eax
	movq	-96(%rbp), %rcx
	movl	-72(%rbp), %edx
	subl	$1, %edx
	imull	-56(%rbp), %edx
	addl	-68(%rbp), %edx
	subl	$3, %edx
	movslq	%edx, %rdx
	cmpl	(%rcx,%rdx,4), %eax
	jle	.LBB16_134
# BB#98:                                #   in Loop: Header=BB16_81 Depth=2
	movl	$2031715, %edi          # imm = 0x1F0063
	callq	enqueue_signature
	movl	-48(%rbp), %eax
	movq	-96(%rbp), %rcx
	movl	-72(%rbp), %edx
	subl	$1, %edx
	imull	-56(%rbp), %edx
	addl	-68(%rbp), %edx
	subl	$2, %edx
	movslq	%edx, %rdx
	cmpl	(%rcx,%rdx,4), %eax
	jle	.LBB16_134
# BB#99:                                #   in Loop: Header=BB16_81 Depth=2
	movl	$2031716, %edi          # imm = 0x1F0064
	callq	enqueue_signature
	movl	-48(%rbp), %eax
	movq	-96(%rbp), %rcx
	movl	-72(%rbp), %edx
	subl	$1, %edx
	imull	-56(%rbp), %edx
	addl	-68(%rbp), %edx
	subl	$1, %edx
	movslq	%edx, %rdx
	cmpl	(%rcx,%rdx,4), %eax
	jle	.LBB16_134
# BB#100:                               #   in Loop: Header=BB16_81 Depth=2
	movl	$2031717, %edi          # imm = 0x1F0065
	callq	enqueue_signature
	movl	-48(%rbp), %eax
	movq	-96(%rbp), %rcx
	movl	-72(%rbp), %edx
	subl	$1, %edx
	imull	-56(%rbp), %edx
	addl	-68(%rbp), %edx
	movslq	%edx, %rdx
	cmpl	(%rcx,%rdx,4), %eax
	jle	.LBB16_134
# BB#101:                               #   in Loop: Header=BB16_81 Depth=2
	movl	$2031718, %edi          # imm = 0x1F0066
	callq	enqueue_signature
	movl	-48(%rbp), %eax
	movq	-96(%rbp), %rcx
	movl	-72(%rbp), %edx
	subl	$1, %edx
	imull	-56(%rbp), %edx
	addl	-68(%rbp), %edx
	addl	$1, %edx
	movslq	%edx, %rdx
	cmpl	(%rcx,%rdx,4), %eax
	jle	.LBB16_134
# BB#102:                               #   in Loop: Header=BB16_81 Depth=2
	movl	$2031719, %edi          # imm = 0x1F0067
	callq	enqueue_signature
	movl	-48(%rbp), %eax
	movq	-96(%rbp), %rcx
	movl	-72(%rbp), %edx
	subl	$1, %edx
	imull	-56(%rbp), %edx
	addl	-68(%rbp), %edx
	addl	$2, %edx
	movslq	%edx, %rdx
	cmpl	(%rcx,%rdx,4), %eax
	jle	.LBB16_134
# BB#103:                               #   in Loop: Header=BB16_81 Depth=2
	movl	$2031720, %edi          # imm = 0x1F0068
	callq	enqueue_signature
	movl	-48(%rbp), %eax
	movq	-96(%rbp), %rcx
	movl	-72(%rbp), %edx
	subl	$1, %edx
	imull	-56(%rbp), %edx
	addl	-68(%rbp), %edx
	addl	$3, %edx
	movslq	%edx, %rdx
	cmpl	(%rcx,%rdx,4), %eax
	jle	.LBB16_134
# BB#104:                               #   in Loop: Header=BB16_81 Depth=2
	movl	$2031721, %edi          # imm = 0x1F0069
	callq	enqueue_signature
	movl	-48(%rbp), %eax
	movq	-96(%rbp), %rcx
	movl	-72(%rbp), %edx
	imull	-56(%rbp), %edx
	addl	-68(%rbp), %edx
	subl	$3, %edx
	movslq	%edx, %rdx
	cmpl	(%rcx,%rdx,4), %eax
	jle	.LBB16_134
# BB#105:                               #   in Loop: Header=BB16_81 Depth=2
	movl	$2031722, %edi          # imm = 0x1F006A
	callq	enqueue_signature
	movl	-48(%rbp), %eax
	movq	-96(%rbp), %rcx
	movl	-72(%rbp), %edx
	imull	-56(%rbp), %edx
	addl	-68(%rbp), %edx
	subl	$2, %edx
	movslq	%edx, %rdx
	cmpl	(%rcx,%rdx,4), %eax
	jle	.LBB16_134
# BB#106:                               #   in Loop: Header=BB16_81 Depth=2
	movl	$2031723, %edi          # imm = 0x1F006B
	callq	enqueue_signature
	movl	-48(%rbp), %eax
	movq	-96(%rbp), %rcx
	movl	-72(%rbp), %edx
	imull	-56(%rbp), %edx
	addl	-68(%rbp), %edx
	subl	$1, %edx
	movslq	%edx, %rdx
	cmpl	(%rcx,%rdx,4), %eax
	jle	.LBB16_134
# BB#107:                               #   in Loop: Header=BB16_81 Depth=2
	movl	$2031724, %edi          # imm = 0x1F006C
	callq	enqueue_signature
	movl	-48(%rbp), %eax
	movq	-96(%rbp), %rcx
	movl	-72(%rbp), %edx
	imull	-56(%rbp), %edx
	addl	-68(%rbp), %edx
	addl	$1, %edx
	movslq	%edx, %rdx
	cmpl	(%rcx,%rdx,4), %eax
	jl	.LBB16_134
# BB#108:                               #   in Loop: Header=BB16_81 Depth=2
	movl	$2031725, %edi          # imm = 0x1F006D
	callq	enqueue_signature
	movl	-48(%rbp), %eax
	movq	-96(%rbp), %rcx
	movl	-72(%rbp), %edx
	imull	-56(%rbp), %edx
